; Listing generated by Microsoft (R) Optimizing Compiler Version 19.15.26730.0 

	TITLE	e:\git\mcferront\anttrap-engine\3rdparty\zlib\zlib-1.2.5\adler32.c
	.686P
	.XMM
	include listing.inc
	.model	flat

INCLUDELIB OLDNAMES

PUBLIC	_adler32_combine@12
PUBLIC	_adler32@12
EXTRN	__chkstk:PROC
EXTRN	_memchr:PROC
EXTRN	_memcpy:PROC
EXTRN	_memset:PROC
; Function compile flags: /Ogtp
; File e:\git\mcferront\anttrap-engine\3rdparty\zlib\zlib-1.2.5\adler32.c
;	COMDAT _adler32@12
_TEXT	SEGMENT
_adler$ = 8						; size = 4
tv2928 = 12						; size = 4
_buf$ = 12						; size = 4
_len$ = 16						; size = 4
_adler32@12 PROC					; COMDAT

; 64   : {

  00000	55		 push	 ebp
  00001	8b ec		 mov	 ebp, esp

; 65   :     unsigned long sum2;
; 66   :     unsigned n;
; 67   : 
; 68   :     /* split Adler-32 into component sums */
; 69   :     sum2 = (adler >> 16) & 0xffff;

  00003	8b 45 08	 mov	 eax, DWORD PTR _adler$[ebp]
  00006	53		 push	 ebx

; 70   :     adler &= 0xffff;
; 71   : 
; 72   :     /* in case user likes doing a byte at a time, keep it fast */
; 73   :     if (len == 1) {

  00007	8b 5d 10	 mov	 ebx, DWORD PTR _len$[ebp]
  0000a	57		 push	 edi
  0000b	8b f8		 mov	 edi, eax
  0000d	0f b7 c8	 movzx	 ecx, ax
  00010	c1 ef 10	 shr	 edi, 16			; 00000010H
  00013	83 fb 01	 cmp	 ebx, 1
  00016	75 34		 jne	 SHORT $LN13@adler32

; 74   :         adler += buf[0];

  00018	8b 45 0c	 mov	 eax, DWORD PTR _buf$[ebp]
  0001b	0f b6 00	 movzx	 eax, BYTE PTR [eax]
  0001e	03 c1		 add	 eax, ecx

; 75   :         if (adler >= BASE)
; 76   :             adler -= BASE;
; 77   :         sum2 += adler;

  00020	3d f1 ff 00 00	 cmp	 eax, 65521		; 0000fff1H
  00025	8d 90 0f 00 ff
	ff		 lea	 edx, DWORD PTR [eax-65521]
  0002b	0f 42 d0	 cmovb	 edx, eax
  0002e	8d 04 3a	 lea	 eax, DWORD PTR [edx+edi]

; 78   :         if (sum2 >= BASE)
; 79   :             sum2 -= BASE;
; 80   :         return adler | (sum2 << 16);

  00031	3d f1 ff 00 00	 cmp	 eax, 65521		; 0000fff1H
  00036	8d 88 0f 00 ff
	ff		 lea	 ecx, DWORD PTR [eax-65521]
  0003c	5f		 pop	 edi
  0003d	0f 42 c8	 cmovb	 ecx, eax
  00040	c1 e1 10	 shl	 ecx, 16			; 00000010H
  00043	0b ca		 or	 ecx, edx
  00045	8b c1		 mov	 eax, ecx

; 128  : }

  00047	5b		 pop	 ebx
  00048	5d		 pop	 ebp
  00049	c2 0c 00	 ret	 12			; 0000000cH
$LN13@adler32:
  0004c	56		 push	 esi

; 81   :     }
; 82   : 
; 83   :     /* initial Adler-32 value (deferred check for len == 1 speed) */
; 84   :     if (buf == Z_NULL)

  0004d	8b 75 0c	 mov	 esi, DWORD PTR _buf$[ebp]
  00050	85 f6		 test	 esi, esi
  00052	75 0a		 jne	 SHORT $LN16@adler32

; 85   :         return 1L;

  00054	8d 46 01	 lea	 eax, DWORD PTR [esi+1]
  00057	5e		 pop	 esi
  00058	5f		 pop	 edi

; 128  : }

  00059	5b		 pop	 ebx
  0005a	5d		 pop	 ebp
  0005b	c2 0c 00	 ret	 12			; 0000000cH
$LN16@adler32:

; 86   : 
; 87   :     /* in case short lengths are provided, keep it somewhat fast */
; 88   :     if (len < 16) {

  0005e	83 fb 10	 cmp	 ebx, 16			; 00000010H
  00061	73 41		 jae	 SHORT $LN22@adler32

; 89   :         while (len--) {

  00063	85 db		 test	 ebx, ebx
  00065	74 0f		 je	 SHORT $LN26@adler32
$LL2@adler32:

; 90   :             adler += *buf++;

  00067	0f b6 06	 movzx	 eax, BYTE PTR [esi]
  0006a	8d 76 01	 lea	 esi, DWORD PTR [esi+1]
  0006d	03 c8		 add	 ecx, eax

; 91   :             sum2 += adler;

  0006f	03 f9		 add	 edi, ecx
  00071	83 eb 01	 sub	 ebx, 1
  00074	75 f1		 jne	 SHORT $LL2@adler32
$LN26@adler32:

; 92   :         }
; 93   :         if (adler >= BASE)
; 94   :             adler -= BASE;
; 95   :         MOD4(sum2);             /* only added so many BASE's */

  00076	81 f9 f1 ff 00
	00		 cmp	 ecx, 65521		; 0000fff1H
  0007c	8d b1 0f 00 ff
	ff		 lea	 esi, DWORD PTR [ecx-65521]
  00082	b8 71 80 07 80	 mov	 eax, -2146992015	; 80078071H
  00087	0f 42 f1	 cmovb	 esi, ecx
  0008a	f7 e7		 mul	 edi
  0008c	c1 ea 0f	 shr	 edx, 15			; 0000000fH
  0008f	8b c2		 mov	 eax, edx
  00091	c1 e0 04	 shl	 eax, 4
  00094	2b c2		 sub	 eax, edx

; 96   :         return adler | (sum2 << 16);

  00096	03 c7		 add	 eax, edi
  00098	c1 e0 10	 shl	 eax, 16			; 00000010H
  0009b	0b c6		 or	 eax, esi
  0009d	5e		 pop	 esi
  0009e	5f		 pop	 edi

; 128  : }

  0009f	5b		 pop	 ebx
  000a0	5d		 pop	 ebp
  000a1	c2 0c 00	 ret	 12			; 0000000cH
$LN22@adler32:

; 97   :     }
; 98   : 
; 99   :     /* do length NMAX blocks -- requires just one modulo operation */
; 100  :     while (len >= NMAX) {

  000a4	81 fb b0 15 00
	00		 cmp	 ebx, 5552		; 000015b0H
  000aa	0f 82 d9 00 00
	00		 jb	 $LN5@adler32
  000b0	b8 af a9 6e 5e	 mov	 eax, 1584310703		; 5e6ea9afH
  000b5	f7 e3		 mul	 ebx
  000b7	c1 ea 0b	 shr	 edx, 11			; 0000000bH
  000ba	89 55 0c	 mov	 DWORD PTR tv2928[ebp], edx
  000bd	0f 1f 00	 npad	 3
$LL4@adler32:

; 101  :         len -= NMAX;

  000c0	81 eb b0 15 00
	00		 sub	 ebx, 5552		; 000015b0H

; 102  :         n = NMAX / 16;          /* NMAX is divisible by 16 */

  000c6	ba 5b 01 00 00	 mov	 edx, 347		; 0000015bH
  000cb	0f 1f 44 00 00	 npad	 5
$LL8@adler32:

; 103  :         do {
; 104  :             DO16(buf);          /* 16 sums unrolled */

  000d0	0f b6 06	 movzx	 eax, BYTE PTR [esi]
  000d3	03 c8		 add	 ecx, eax
  000d5	0f b6 46 01	 movzx	 eax, BYTE PTR [esi+1]
  000d9	03 f9		 add	 edi, ecx
  000db	03 c8		 add	 ecx, eax
  000dd	0f b6 46 02	 movzx	 eax, BYTE PTR [esi+2]
  000e1	03 f9		 add	 edi, ecx
  000e3	03 c8		 add	 ecx, eax
  000e5	0f b6 46 03	 movzx	 eax, BYTE PTR [esi+3]
  000e9	03 f9		 add	 edi, ecx
  000eb	03 c8		 add	 ecx, eax
  000ed	0f b6 46 04	 movzx	 eax, BYTE PTR [esi+4]
  000f1	03 f9		 add	 edi, ecx
  000f3	03 c8		 add	 ecx, eax
  000f5	0f b6 46 05	 movzx	 eax, BYTE PTR [esi+5]
  000f9	03 f9		 add	 edi, ecx
  000fb	03 c8		 add	 ecx, eax
  000fd	0f b6 46 06	 movzx	 eax, BYTE PTR [esi+6]
  00101	03 f9		 add	 edi, ecx
  00103	03 c8		 add	 ecx, eax
  00105	0f b6 46 07	 movzx	 eax, BYTE PTR [esi+7]
  00109	03 f9		 add	 edi, ecx
  0010b	03 c8		 add	 ecx, eax
  0010d	0f b6 46 08	 movzx	 eax, BYTE PTR [esi+8]
  00111	03 f9		 add	 edi, ecx
  00113	03 c8		 add	 ecx, eax
  00115	0f b6 46 09	 movzx	 eax, BYTE PTR [esi+9]
  00119	03 f9		 add	 edi, ecx
  0011b	03 c8		 add	 ecx, eax
  0011d	0f b6 46 0a	 movzx	 eax, BYTE PTR [esi+10]
  00121	03 f9		 add	 edi, ecx
  00123	03 c8		 add	 ecx, eax
  00125	0f b6 46 0b	 movzx	 eax, BYTE PTR [esi+11]
  00129	03 f9		 add	 edi, ecx
  0012b	03 c8		 add	 ecx, eax
  0012d	0f b6 46 0c	 movzx	 eax, BYTE PTR [esi+12]
  00131	03 f9		 add	 edi, ecx
  00133	03 c8		 add	 ecx, eax
  00135	0f b6 46 0d	 movzx	 eax, BYTE PTR [esi+13]
  00139	03 f9		 add	 edi, ecx
  0013b	03 c8		 add	 ecx, eax
  0013d	0f b6 46 0e	 movzx	 eax, BYTE PTR [esi+14]
  00141	03 f9		 add	 edi, ecx
  00143	03 c8		 add	 ecx, eax
  00145	0f b6 46 0f	 movzx	 eax, BYTE PTR [esi+15]
  00149	03 f9		 add	 edi, ecx

; 105  :             buf += 16;

  0014b	83 c6 10	 add	 esi, 16			; 00000010H
  0014e	03 c8		 add	 ecx, eax
  00150	03 f9		 add	 edi, ecx

; 106  :         } while (--n);

  00152	83 ea 01	 sub	 edx, 1
  00155	0f 85 75 ff ff
	ff		 jne	 $LL8@adler32

; 107  :         MOD(adler);

  0015b	b8 71 80 07 80	 mov	 eax, -2146992015	; 80078071H
  00160	f7 e1		 mul	 ecx
  00162	c1 ea 0f	 shr	 edx, 15			; 0000000fH
  00165	69 c2 0f 00 ff
	ff		 imul	 eax, edx, -65521
  0016b	03 c8		 add	 ecx, eax

; 108  :         MOD(sum2);

  0016d	b8 71 80 07 80	 mov	 eax, -2146992015	; 80078071H
  00172	f7 e7		 mul	 edi
  00174	c1 ea 0f	 shr	 edx, 15			; 0000000fH
  00177	69 c2 0f 00 ff
	ff		 imul	 eax, edx, -65521
  0017d	03 f8		 add	 edi, eax
  0017f	83 6d 0c 01	 sub	 DWORD PTR tv2928[ebp], 1
  00183	0f 85 37 ff ff
	ff		 jne	 $LL4@adler32
$LN5@adler32:

; 109  :     }
; 110  : 
; 111  :     /* do remaining bytes (less than NMAX, still just one modulo) */
; 112  :     if (len) {                  /* avoid modulos if none remaining */

  00189	85 db		 test	 ebx, ebx
  0018b	0f 84 d4 00 00
	00		 je	 $LN19@adler32

; 113  :         while (len >= 16) {

  00191	83 fb 10	 cmp	 ebx, 16			; 00000010H
  00194	0f 82 94 00 00
	00		 jb	 $LN25@adler32
  0019a	8b d3		 mov	 edx, ebx
  0019c	c1 ea 04	 shr	 edx, 4
  0019f	90		 npad	 1
$LL9@adler32:

; 114  :             len -= 16;
; 115  :             DO16(buf);

  001a0	0f b6 06	 movzx	 eax, BYTE PTR [esi]
  001a3	83 eb 10	 sub	 ebx, 16			; 00000010H
  001a6	03 c8		 add	 ecx, eax
  001a8	0f b6 46 01	 movzx	 eax, BYTE PTR [esi+1]
  001ac	03 f9		 add	 edi, ecx
  001ae	03 c8		 add	 ecx, eax
  001b0	0f b6 46 02	 movzx	 eax, BYTE PTR [esi+2]
  001b4	03 f9		 add	 edi, ecx
  001b6	03 c8		 add	 ecx, eax
  001b8	0f b6 46 03	 movzx	 eax, BYTE PTR [esi+3]
  001bc	03 f9		 add	 edi, ecx
  001be	03 c8		 add	 ecx, eax
  001c0	0f b6 46 04	 movzx	 eax, BYTE PTR [esi+4]
  001c4	03 f9		 add	 edi, ecx
  001c6	03 c8		 add	 ecx, eax
  001c8	0f b6 46 05	 movzx	 eax, BYTE PTR [esi+5]
  001cc	03 f9		 add	 edi, ecx
  001ce	03 c8		 add	 ecx, eax
  001d0	0f b6 46 06	 movzx	 eax, BYTE PTR [esi+6]
  001d4	03 f9		 add	 edi, ecx
  001d6	03 c8		 add	 ecx, eax
  001d8	0f b6 46 07	 movzx	 eax, BYTE PTR [esi+7]
  001dc	03 f9		 add	 edi, ecx
  001de	03 c8		 add	 ecx, eax
  001e0	0f b6 46 08	 movzx	 eax, BYTE PTR [esi+8]
  001e4	03 f9		 add	 edi, ecx
  001e6	03 c8		 add	 ecx, eax
  001e8	0f b6 46 09	 movzx	 eax, BYTE PTR [esi+9]
  001ec	03 f9		 add	 edi, ecx
  001ee	03 c8		 add	 ecx, eax
  001f0	0f b6 46 0a	 movzx	 eax, BYTE PTR [esi+10]
  001f4	03 f9		 add	 edi, ecx
  001f6	03 c8		 add	 ecx, eax
  001f8	0f b6 46 0b	 movzx	 eax, BYTE PTR [esi+11]
  001fc	03 f9		 add	 edi, ecx
  001fe	03 c8		 add	 ecx, eax
  00200	0f b6 46 0c	 movzx	 eax, BYTE PTR [esi+12]
  00204	03 f9		 add	 edi, ecx
  00206	03 c8		 add	 ecx, eax
  00208	0f b6 46 0d	 movzx	 eax, BYTE PTR [esi+13]
  0020c	03 f9		 add	 edi, ecx
  0020e	03 c8		 add	 ecx, eax
  00210	0f b6 46 0e	 movzx	 eax, BYTE PTR [esi+14]
  00214	03 f9		 add	 edi, ecx
  00216	03 c8		 add	 ecx, eax
  00218	0f b6 46 0f	 movzx	 eax, BYTE PTR [esi+15]
  0021c	03 f9		 add	 edi, ecx

; 116  :             buf += 16;

  0021e	83 c6 10	 add	 esi, 16			; 00000010H
  00221	03 c8		 add	 ecx, eax
  00223	03 f9		 add	 edi, ecx
  00225	83 ea 01	 sub	 edx, 1
  00228	0f 85 72 ff ff
	ff		 jne	 $LL9@adler32
$LN25@adler32:

; 117  :         }
; 118  :         while (len--) {

  0022e	85 db		 test	 ebx, ebx
  00230	74 0f		 je	 SHORT $LN30@adler32
$LL11@adler32:

; 119  :             adler += *buf++;

  00232	0f b6 06	 movzx	 eax, BYTE PTR [esi]
  00235	8d 76 01	 lea	 esi, DWORD PTR [esi+1]
  00238	03 c8		 add	 ecx, eax

; 120  :             sum2 += adler;

  0023a	03 f9		 add	 edi, ecx
  0023c	83 eb 01	 sub	 ebx, 1
  0023f	75 f1		 jne	 SHORT $LL11@adler32
$LN30@adler32:

; 121  :         }
; 122  :         MOD(adler);

  00241	b8 71 80 07 80	 mov	 eax, -2146992015	; 80078071H
  00246	f7 e1		 mul	 ecx
  00248	c1 ea 0f	 shr	 edx, 15			; 0000000fH
  0024b	69 c2 0f 00 ff
	ff		 imul	 eax, edx, -65521
  00251	03 c8		 add	 ecx, eax

; 123  :         MOD(sum2);

  00253	b8 71 80 07 80	 mov	 eax, -2146992015	; 80078071H
  00258	f7 e7		 mul	 edi
  0025a	c1 ea 0f	 shr	 edx, 15			; 0000000fH
  0025d	69 d2 0f 00 ff
	ff		 imul	 edx, edx, -65521
  00263	03 fa		 add	 edi, edx
$LN19@adler32:

; 124  :     }
; 125  : 
; 126  :     /* return recombined sums */
; 127  :     return adler | (sum2 << 16);

  00265	c1 e7 10	 shl	 edi, 16			; 00000010H
  00268	0b f9		 or	 edi, ecx
  0026a	5e		 pop	 esi
  0026b	8b c7		 mov	 eax, edi
  0026d	5f		 pop	 edi

; 128  : }

  0026e	5b		 pop	 ebx
  0026f	5d		 pop	 ebp
  00270	c2 0c 00	 ret	 12			; 0000000cH
_adler32@12 ENDP
_TEXT	ENDS
; Function compile flags: /Ogtp
; File e:\git\mcferront\anttrap-engine\3rdparty\zlib\zlib-1.2.5\adler32.c
;	COMDAT _adler32_combine_
_TEXT	SEGMENT
_adler2$1$ = -8						; size = 4
_adler1$1$ = -4						; size = 4
_len2$ = 8						; size = 4
_adler32_combine_ PROC					; COMDAT
; _adler1$ = ecx
; _adler2$ = edx

; 135  : {

  00000	55		 push	 ebp
  00001	8b ec		 mov	 ebp, esp
  00003	83 ec 08	 sub	 esp, 8
  00006	53		 push	 ebx

; 136  :     unsigned long sum1;
; 137  :     unsigned long sum2;
; 138  :     unsigned rem;
; 139  : 
; 140  :     /* the derivation of this formula is left as an exercise for the reader */
; 141  :     rem = (unsigned)(len2 % BASE);

  00007	8b 5d 08	 mov	 ebx, DWORD PTR _len2$[ebp]
  0000a	b8 71 80 07 80	 mov	 eax, -2146992015	; 80078071H
  0000f	56		 push	 esi
  00010	8b f2		 mov	 esi, edx
  00012	89 4d fc	 mov	 DWORD PTR _adler1$1$[ebp], ecx
  00015	f7 e3		 mul	 ebx
  00017	57		 push	 edi
  00018	c1 ea 0f	 shr	 edx, 15			; 0000000fH
  0001b	69 c2 f1 ff 00
	00		 imul	 eax, edx, 65521

; 142  :     sum1 = adler1 & 0xffff;

  00021	0f b7 d1	 movzx	 edx, cx

; 143  :     sum2 = rem * sum1;

  00024	8b fa		 mov	 edi, edx

; 144  :     MOD(sum2);
; 145  :     sum1 += (adler2 & 0xffff) + BASE - 1;

  00026	0f b7 ce	 movzx	 ecx, si
  00029	03 ca		 add	 ecx, edx
  0002b	89 75 f8	 mov	 DWORD PTR _adler2$1$[ebp], esi
  0002e	2b d8		 sub	 ebx, eax
  00030	b8 71 80 07 80	 mov	 eax, -2146992015	; 80078071H
  00035	0f af fb	 imul	 edi, ebx
  00038	8d b1 f0 ff 00
	00		 lea	 esi, DWORD PTR [ecx+65520]
  0003e	f7 e7		 mul	 edi
  00040	c1 ea 0f	 shr	 edx, 15			; 0000000fH
  00043	69 c2 f1 ff 00
	00		 imul	 eax, edx, 65521

; 146  :     sum2 += ((adler1 >> 16) & 0xffff) + ((adler2 >> 16) & 0xffff) + BASE - rem;

  00049	8b 55 fc	 mov	 edx, DWORD PTR _adler1$1$[ebp]
  0004c	c1 ea 10	 shr	 edx, 16			; 00000010H
  0004f	2b d0		 sub	 edx, eax
  00051	8b 45 f8	 mov	 eax, DWORD PTR _adler2$1$[ebp]
  00054	c1 e8 10	 shr	 eax, 16			; 00000010H
  00057	03 d0		 add	 edx, eax
  00059	2b d3		 sub	 edx, ebx
  0005b	03 d7		 add	 edx, edi

; 147  :     if (sum1 >= BASE) sum1 -= BASE;
; 148  :     if (sum1 >= BASE) sum1 -= BASE;
; 149  :     if (sum2 >= (BASE << 1)) sum2 -= (BASE << 1);

  0005d	8d 79 ff	 lea	 edi, DWORD PTR [ecx-1]
  00060	81 fe f1 ff 00
	00		 cmp	 esi, 65521		; 0000fff1H
  00066	0f 42 fe	 cmovb	 edi, esi
  00069	8d 82 f1 ff 00
	00		 lea	 eax, DWORD PTR [edx+65521]

; 150  :     if (sum2 >= BASE) sum2 -= BASE;
; 151  :     return sum1 | (sum2 << 16);

  0006f	3d e2 ff 01 00	 cmp	 eax, 131042		; 0001ffe2H
  00074	1b c9		 sbb	 ecx, ecx
  00076	81 e1 e2 ff 01
	00		 and	 ecx, 131042		; 0001ffe2H
  0007c	81 c1 0f 00 ff
	ff		 add	 ecx, -65521		; ffff000fH
  00082	03 ca		 add	 ecx, edx
  00084	81 f9 f1 ff 00
	00		 cmp	 ecx, 65521		; 0000fff1H
  0008a	8d 81 0f 00 ff
	ff		 lea	 eax, DWORD PTR [ecx-65521]
  00090	0f 42 c1	 cmovb	 eax, ecx
  00093	8d 8f 0f 00 ff
	ff		 lea	 ecx, DWORD PTR [edi-65521]
  00099	c1 e0 10	 shl	 eax, 16			; 00000010H
  0009c	81 ff f1 ff 00
	00		 cmp	 edi, 65521		; 0000fff1H
  000a2	0f 42 cf	 cmovb	 ecx, edi
  000a5	5f		 pop	 edi
  000a6	5e		 pop	 esi
  000a7	0b c1		 or	 eax, ecx
  000a9	5b		 pop	 ebx

; 152  : }

  000aa	8b e5		 mov	 esp, ebp
  000ac	5d		 pop	 ebp
  000ad	c3		 ret	 0
_adler32_combine_ ENDP
_TEXT	ENDS
; Function compile flags: /Ogtp
; File e:\git\mcferront\anttrap-engine\3rdparty\zlib\zlib-1.2.5\adler32.c
;	COMDAT _adler32_combine@12
_TEXT	SEGMENT
_adler1$ = 8						; size = 4
_adler2$ = 12						; size = 4
_len2$ = 16						; size = 4
_adler32_combine@12 PROC				; COMDAT

; 159  : {

  00000	55		 push	 ebp
  00001	8b ec		 mov	 ebp, esp

; 160  :     return adler32_combine_(adler1, adler2, len2);

  00003	ff 75 10	 push	 DWORD PTR _len2$[ebp]
  00006	8b 55 0c	 mov	 edx, DWORD PTR _adler2$[ebp]
  00009	8b 4d 08	 mov	 ecx, DWORD PTR _adler1$[ebp]
  0000c	e8 00 00 00 00	 call	 _adler32_combine_
  00011	83 c4 04	 add	 esp, 4

; 161  : }

  00014	5d		 pop	 ebp
  00015	c2 0c 00	 ret	 12			; 0000000cH
_adler32_combine@12 ENDP
_TEXT	ENDS
END
