; Listing generated by Microsoft (R) Optimizing Compiler Version 19.15.26730.0 

	TITLE	e:\git\mcferront\anttrap-engine\3rdparty\zlib\zlib-1.2.5\contrib\minizip\ioapi.c
	.686P
	.XMM
	include listing.inc
	.model	flat

INCLUDELIB OLDNAMES

PUBLIC	??_C@_02JDPG@rb@				; `string'
PUBLIC	??_C@_03HMFOOINA@r?$CLb@			; `string'
PUBLIC	??_C@_02GMLFBBN@wb@				; `string'
EXTRN	__imp___fseeki64:PROC
EXTRN	__imp__fread:PROC
EXTRN	__imp___ftelli64:PROC
EXTRN	__imp__fwrite:PROC
EXTRN	__imp__fseek:PROC
EXTRN	__imp__fclose:PROC
EXTRN	__imp__fopen:PROC
EXTRN	__imp__ferror:PROC
EXTRN	__imp__ftell:PROC
;	COMDAT ??_C@_02GMLFBBN@wb@
CONST	SEGMENT
??_C@_02GMLFBBN@wb@ DB 'wb', 00H			; `string'
CONST	ENDS
;	COMDAT ??_C@_03HMFOOINA@r?$CLb@
CONST	SEGMENT
??_C@_03HMFOOINA@r?$CLb@ DB 'r+b', 00H			; `string'
CONST	ENDS
;	COMDAT ??_C@_02JDPG@rb@
CONST	SEGMENT
??_C@_02JDPG@rb@ DB 'rb', 00H				; `string'
PUBLIC	_fill_fopen64_filefunc
PUBLIC	_fill_zlib_filefunc64_32_def_from_filefunc32
PUBLIC	_call_ztell64
PUBLIC	_call_zseek64
PUBLIC	_call_zopen64
; Function compile flags: /Ogtp
; File e:\git\mcferront\anttrap-engine\3rdparty\zlib\zlib-1.2.5\contrib\minizip\ioapi.c
;	COMDAT _call_zopen64
_TEXT	SEGMENT
_mode$ = 8						; size = 4
_call_zopen64 PROC					; COMDAT
; _pfilefunc$ = ecx
; _filename$ = edx

; 20   : {

  00000	55		 push	 ebp
  00001	8b ec		 mov	 ebp, esp

; 21   :     if (pfilefunc->zfile_func64.zopen64_file != NULL)

  00003	8b 01		 mov	 eax, DWORD PTR [ecx]
  00005	56		 push	 esi
  00006	8b 71 1c	 mov	 esi, DWORD PTR [ecx+28]
  00009	ff 75 08	 push	 DWORD PTR _mode$[ebp]
  0000c	52		 push	 edx
  0000d	56		 push	 esi
  0000e	85 c0		 test	 eax, eax
  00010	75 03		 jne	 SHORT $LN5@call_zopen

; 22   :         return (*(pfilefunc->zfile_func64.zopen64_file)) (pfilefunc->zfile_func64.opaque,filename,mode);
; 23   :     else
; 24   :     {
; 25   :         return (*(pfilefunc->zopen32_file))(pfilefunc->zfile_func64.opaque,(const char*)filename,mode);

  00012	8b 41 20	 mov	 eax, DWORD PTR [ecx+32]
$LN5@call_zopen:

; 26   :     }
; 27   : }

  00015	ff d0		 call	 eax
  00017	83 c4 0c	 add	 esp, 12			; 0000000cH
  0001a	5e		 pop	 esi
  0001b	5d		 pop	 ebp
  0001c	c3		 ret	 0
_call_zopen64 ENDP
_TEXT	ENDS
; Function compile flags: /Ogtp
; File e:\git\mcferront\anttrap-engine\3rdparty\zlib\zlib-1.2.5\contrib\minizip\ioapi.c
;	COMDAT _call_zseek64
_TEXT	SEGMENT
_offset$ = 8						; size = 8
_origin$ = 16						; size = 4
_call_zseek64 PROC					; COMDAT
; _pfilefunc$ = ecx
; _filestream$ = edx

; 30   : {

  00000	55		 push	 ebp
  00001	8b ec		 mov	 ebp, esp
  00003	83 e4 f8	 and	 esp, -8			; fffffff8H
  00006	51		 push	 ecx

; 31   :     if (pfilefunc->zfile_func64.zseek64_file != NULL)

  00007	8b 41 10	 mov	 eax, DWORD PTR [ecx+16]
  0000a	56		 push	 esi
  0000b	85 c0		 test	 eax, eax
  0000d	74 17		 je	 SHORT $LN2@call_zseek

; 32   :         return (*(pfilefunc->zfile_func64.zseek64_file)) (pfilefunc->zfile_func64.opaque,filestream,offset,origin);

  0000f	ff 75 10	 push	 DWORD PTR _origin$[ebp]
  00012	ff 75 0c	 push	 DWORD PTR _offset$[ebp+4]
  00015	ff 75 08	 push	 DWORD PTR _offset$[ebp]
  00018	52		 push	 edx
  00019	ff 71 1c	 push	 DWORD PTR [ecx+28]
  0001c	ff d0		 call	 eax
  0001e	83 c4 14	 add	 esp, 20			; 00000014H

; 40   :     }
; 41   : }

  00021	5e		 pop	 esi
  00022	8b e5		 mov	 esp, ebp
  00024	5d		 pop	 ebp
  00025	c3		 ret	 0
$LN2@call_zseek:

; 33   :     else
; 34   :     {
; 35   :         uLong offsetTruncated = (uLong)offset;

  00026	8b 45 08	 mov	 eax, DWORD PTR _offset$[ebp]

; 36   :         if (offsetTruncated != offset)

  00029	33 f6		 xor	 esi, esi
  0002b	3b 75 0c	 cmp	 esi, DWORD PTR _offset$[ebp+4]
  0002e	75 15		 jne	 SHORT $LN7@call_zseek

; 38   :         else
; 39   :             return (*(pfilefunc->zseek32_file))(pfilefunc->zfile_func64.opaque,filestream,offsetTruncated,origin);

  00030	ff 75 10	 push	 DWORD PTR _origin$[ebp]
  00033	50		 push	 eax
  00034	8b 41 28	 mov	 eax, DWORD PTR [ecx+40]
  00037	52		 push	 edx
  00038	ff 71 1c	 push	 DWORD PTR [ecx+28]
  0003b	ff d0		 call	 eax
  0003d	83 c4 10	 add	 esp, 16			; 00000010H

; 40   :     }
; 41   : }

  00040	5e		 pop	 esi
  00041	8b e5		 mov	 esp, ebp
  00043	5d		 pop	 ebp
  00044	c3		 ret	 0
$LN7@call_zseek:

; 37   :             return -1;

  00045	83 c8 ff	 or	 eax, -1

; 40   :     }
; 41   : }

  00048	5e		 pop	 esi
  00049	8b e5		 mov	 esp, ebp
  0004b	5d		 pop	 ebp
  0004c	c3		 ret	 0
_call_zseek64 ENDP
_TEXT	ENDS
; Function compile flags: /Ogtp
; File e:\git\mcferront\anttrap-engine\3rdparty\zlib\zlib-1.2.5\contrib\minizip\ioapi.c
;	COMDAT _call_ztell64
_TEXT	SEGMENT
_call_ztell64 PROC					; COMDAT
; _pfilefunc$ = ecx
; _filestream$ = edx

; 45   :     if (pfilefunc->zfile_func64.zseek64_file != NULL)

  00000	83 79 10 00	 cmp	 DWORD PTR [ecx+16], 0
  00004	8b 41 1c	 mov	 eax, DWORD PTR [ecx+28]
  00007	52		 push	 edx
  00008	50		 push	 eax
  00009	74 09		 je	 SHORT $LN2@call_ztell

; 46   :         return (*(pfilefunc->zfile_func64.ztell64_file)) (pfilefunc->zfile_func64.opaque,filestream);

  0000b	8b 41 0c	 mov	 eax, DWORD PTR [ecx+12]
  0000e	ff d0		 call	 eax
  00010	83 c4 08	 add	 esp, 8

; 54   :     }
; 55   : }

  00013	c3		 ret	 0
$LN2@call_ztell:

; 47   :     else
; 48   :     {
; 49   :         uLong tell_uLong = (*(pfilefunc->ztell32_file))(pfilefunc->zfile_func64.opaque,filestream);

  00014	8b 41 24	 mov	 eax, DWORD PTR [ecx+36]
  00017	ff d0		 call	 eax
  00019	83 c4 08	 add	 esp, 8

; 50   :         if ((tell_uLong) == ((uLong)-1))

  0001c	83 f8 ff	 cmp	 eax, -1
  0001f	75 06		 jne	 SHORT $LN4@call_ztell

; 51   :             return (ZPOS64_T)-1;

  00021	0b c0		 or	 eax, eax
  00023	83 ca ff	 or	 edx, -1

; 54   :     }
; 55   : }

  00026	c3		 ret	 0
$LN4@call_ztell:

; 52   :         else
; 53   :             return tell_uLong;

  00027	33 d2		 xor	 edx, edx

; 54   :     }
; 55   : }

  00029	c3		 ret	 0
_call_ztell64 ENDP
_TEXT	ENDS
; Function compile flags: /Ogtp
; File e:\git\mcferront\anttrap-engine\3rdparty\zlib\zlib-1.2.5\contrib\minizip\ioapi.c
;	COMDAT _fill_zlib_filefunc64_32_def_from_filefunc32
_TEXT	SEGMENT
_fill_zlib_filefunc64_32_def_from_filefunc32 PROC	; COMDAT
; _p_filefunc64_32$ = ecx
; _p_filefunc32$ = edx

; 59   :     p_filefunc64_32->zfile_func64.zopen64_file = NULL;
; 60   :     p_filefunc64_32->zopen32_file = p_filefunc32->zopen_file;

  00000	8b 02		 mov	 eax, DWORD PTR [edx]
  00002	89 41 20	 mov	 DWORD PTR [ecx+32], eax

; 61   :     p_filefunc64_32->zfile_func64.zerror_file = p_filefunc32->zerror_file;
; 62   :     p_filefunc64_32->zfile_func64.zread_file = p_filefunc32->zread_file;

  00005	8b 42 04	 mov	 eax, DWORD PTR [edx+4]
  00008	89 41 04	 mov	 DWORD PTR [ecx+4], eax

; 63   :     p_filefunc64_32->zfile_func64.zwrite_file = p_filefunc32->zwrite_file;

  0000b	8b 42 08	 mov	 eax, DWORD PTR [edx+8]
  0000e	89 41 08	 mov	 DWORD PTR [ecx+8], eax

; 64   :     p_filefunc64_32->zfile_func64.ztell64_file = NULL;
; 65   :     p_filefunc64_32->zfile_func64.zseek64_file = NULL;
; 66   :     p_filefunc64_32->zfile_func64.zclose_file = p_filefunc32->zclose_file;

  00011	8b 42 14	 mov	 eax, DWORD PTR [edx+20]
  00014	89 41 14	 mov	 DWORD PTR [ecx+20], eax

; 67   :     p_filefunc64_32->zfile_func64.zerror_file = p_filefunc32->zerror_file;

  00017	8b 42 18	 mov	 eax, DWORD PTR [edx+24]
  0001a	89 41 18	 mov	 DWORD PTR [ecx+24], eax

; 68   :     p_filefunc64_32->zfile_func64.opaque = p_filefunc32->opaque;

  0001d	8b 42 1c	 mov	 eax, DWORD PTR [edx+28]
  00020	89 41 1c	 mov	 DWORD PTR [ecx+28], eax

; 69   :     p_filefunc64_32->zseek32_file = p_filefunc32->zseek_file;

  00023	8b 42 10	 mov	 eax, DWORD PTR [edx+16]
  00026	89 41 28	 mov	 DWORD PTR [ecx+40], eax

; 70   :     p_filefunc64_32->ztell32_file = p_filefunc32->ztell_file;

  00029	8b 42 0c	 mov	 eax, DWORD PTR [edx+12]
  0002c	c7 01 00 00 00
	00		 mov	 DWORD PTR [ecx], 0
  00032	c7 41 0c 00 00
	00 00		 mov	 DWORD PTR [ecx+12], 0
  00039	c7 41 10 00 00
	00 00		 mov	 DWORD PTR [ecx+16], 0
  00040	89 41 24	 mov	 DWORD PTR [ecx+36], eax

; 71   : }

  00043	c3		 ret	 0
_fill_zlib_filefunc64_32_def_from_filefunc32 ENDP
_TEXT	ENDS
; Function compile flags: /Ogtp
; File e:\git\mcferront\anttrap-engine\3rdparty\zlib\zlib-1.2.5\contrib\minizip\ioapi.c
;	COMDAT _fopen_file_func
_TEXT	SEGMENT
_opaque$ = 8						; size = 4
_filename$ = 12						; size = 4
_mode$ = 16						; size = 4
_fopen_file_func PROC					; COMDAT

; 84   : {

  00000	55		 push	 ebp
  00001	8b ec		 mov	 ebp, esp

; 85   :     FILE* file = NULL;
; 86   :     const char* mode_fopen = NULL;
; 87   :     if ((mode & ZLIB_FILEFUNC_MODE_READWRITEFILTER)==ZLIB_FILEFUNC_MODE_READ)

  00003	8b 4d 10	 mov	 ecx, DWORD PTR _mode$[ebp]
  00006	33 d2		 xor	 edx, edx
  00008	8b c1		 mov	 eax, ecx
  0000a	24 03		 and	 al, 3
  0000c	3c 01		 cmp	 al, 1
  0000e	75 07		 jne	 SHORT $LN2@fopen_file

; 88   :         mode_fopen = "rb";

  00010	b8 00 00 00 00	 mov	 eax, OFFSET ??_C@_02JDPG@rb@
  00015	eb 17		 jmp	 SHORT $LN6@fopen_file
$LN2@fopen_file:

; 89   :     else
; 90   :     if (mode & ZLIB_FILEFUNC_MODE_EXISTING)

  00017	f6 c1 04	 test	 cl, 4
  0001a	74 07		 je	 SHORT $LN4@fopen_file

; 91   :         mode_fopen = "r+b";

  0001c	b8 00 00 00 00	 mov	 eax, OFFSET ??_C@_03HMFOOINA@r?$CLb@
  00021	eb 0b		 jmp	 SHORT $LN6@fopen_file
$LN4@fopen_file:

; 92   :     else
; 93   :     if (mode & ZLIB_FILEFUNC_MODE_CREATE)

  00023	f6 c1 08	 test	 cl, 8
  00026	b8 00 00 00 00	 mov	 eax, OFFSET ??_C@_02GMLFBBN@wb@
  0002b	0f 44 c2	 cmove	 eax, edx
$LN6@fopen_file:

; 94   :         mode_fopen = "wb";
; 95   : 
; 96   :     if ((filename!=NULL) && (mode_fopen != NULL))

  0002e	8b 4d 0c	 mov	 ecx, DWORD PTR _filename$[ebp]
  00031	85 c9		 test	 ecx, ecx
  00033	74 11		 je	 SHORT $LN9@fopen_file
  00035	85 c0		 test	 eax, eax
  00037	74 0d		 je	 SHORT $LN9@fopen_file

; 97   :         file = fopen(filename, mode_fopen);

  00039	50		 push	 eax
  0003a	51		 push	 ecx
  0003b	ff 15 00 00 00
	00		 call	 DWORD PTR __imp__fopen
  00041	83 c4 08	 add	 esp, 8

; 98   :     return file;
; 99   : }

  00044	5d		 pop	 ebp
  00045	c3		 ret	 0
$LN9@fopen_file:
  00046	33 c0		 xor	 eax, eax
  00048	5d		 pop	 ebp
  00049	c3		 ret	 0
_fopen_file_func ENDP
_TEXT	ENDS
; Function compile flags: /Ogtp
; File e:\git\mcferront\anttrap-engine\3rdparty\zlib\zlib-1.2.5\contrib\minizip\ioapi.c
;	COMDAT _fopen64_file_func
_TEXT	SEGMENT
_opaque$ = 8						; size = 4
_filename$ = 12						; size = 4
_mode$ = 16						; size = 4
_fopen64_file_func PROC					; COMDAT

; 102  : {

  00000	55		 push	 ebp
  00001	8b ec		 mov	 ebp, esp

; 103  :     FILE* file = NULL;
; 104  :     const char* mode_fopen = NULL;
; 105  :     if ((mode & ZLIB_FILEFUNC_MODE_READWRITEFILTER)==ZLIB_FILEFUNC_MODE_READ)

  00003	8b 4d 10	 mov	 ecx, DWORD PTR _mode$[ebp]
  00006	33 d2		 xor	 edx, edx
  00008	8b c1		 mov	 eax, ecx
  0000a	24 03		 and	 al, 3
  0000c	3c 01		 cmp	 al, 1
  0000e	75 07		 jne	 SHORT $LN2@fopen64_fi

; 106  :         mode_fopen = "rb";

  00010	b8 00 00 00 00	 mov	 eax, OFFSET ??_C@_02JDPG@rb@
  00015	eb 17		 jmp	 SHORT $LN6@fopen64_fi
$LN2@fopen64_fi:

; 107  :     else
; 108  :     if (mode & ZLIB_FILEFUNC_MODE_EXISTING)

  00017	f6 c1 04	 test	 cl, 4
  0001a	74 07		 je	 SHORT $LN4@fopen64_fi

; 109  :         mode_fopen = "r+b";

  0001c	b8 00 00 00 00	 mov	 eax, OFFSET ??_C@_03HMFOOINA@r?$CLb@
  00021	eb 0b		 jmp	 SHORT $LN6@fopen64_fi
$LN4@fopen64_fi:

; 110  :     else
; 111  :     if (mode & ZLIB_FILEFUNC_MODE_CREATE)

  00023	f6 c1 08	 test	 cl, 8
  00026	b8 00 00 00 00	 mov	 eax, OFFSET ??_C@_02GMLFBBN@wb@
  0002b	0f 44 c2	 cmove	 eax, edx
$LN6@fopen64_fi:

; 112  :         mode_fopen = "wb";
; 113  : 
; 114  :     if ((filename!=NULL) && (mode_fopen != NULL))

  0002e	8b 4d 0c	 mov	 ecx, DWORD PTR _filename$[ebp]
  00031	85 c9		 test	 ecx, ecx
  00033	74 11		 je	 SHORT $LN9@fopen64_fi
  00035	85 c0		 test	 eax, eax
  00037	74 0d		 je	 SHORT $LN9@fopen64_fi

; 115  :         file = fopen64((const char*)filename, mode_fopen);

  00039	50		 push	 eax
  0003a	51		 push	 ecx
  0003b	ff 15 00 00 00
	00		 call	 DWORD PTR __imp__fopen
  00041	83 c4 08	 add	 esp, 8

; 116  :     return file;
; 117  : }

  00044	5d		 pop	 ebp
  00045	c3		 ret	 0
$LN9@fopen64_fi:
  00046	33 c0		 xor	 eax, eax
  00048	5d		 pop	 ebp
  00049	c3		 ret	 0
_fopen64_file_func ENDP
_TEXT	ENDS
; Function compile flags: /Ogtp
; File e:\git\mcferront\anttrap-engine\3rdparty\zlib\zlib-1.2.5\contrib\minizip\ioapi.c
;	COMDAT _fread_file_func
_TEXT	SEGMENT
_opaque$ = 8						; size = 4
_stream$ = 12						; size = 4
_buf$ = 16						; size = 4
_size$ = 20						; size = 4
_fread_file_func PROC					; COMDAT

; 121  : {

  00000	55		 push	 ebp
  00001	8b ec		 mov	 ebp, esp

; 122  :     uLong ret;
; 123  :     ret = (uLong)fread(buf, 1, (size_t)size, (FILE *)stream);

  00003	ff 75 0c	 push	 DWORD PTR _stream$[ebp]
  00006	ff 75 14	 push	 DWORD PTR _size$[ebp]
  00009	6a 01		 push	 1
  0000b	ff 75 10	 push	 DWORD PTR _buf$[ebp]
  0000e	ff 15 00 00 00
	00		 call	 DWORD PTR __imp__fread
  00014	83 c4 10	 add	 esp, 16			; 00000010H

; 124  :     return ret;
; 125  : }

  00017	5d		 pop	 ebp
  00018	c3		 ret	 0
_fread_file_func ENDP
_TEXT	ENDS
; Function compile flags: /Ogtp
; File e:\git\mcferront\anttrap-engine\3rdparty\zlib\zlib-1.2.5\contrib\minizip\ioapi.c
;	COMDAT _fwrite_file_func
_TEXT	SEGMENT
_opaque$ = 8						; size = 4
_stream$ = 12						; size = 4
_buf$ = 16						; size = 4
_size$ = 20						; size = 4
_fwrite_file_func PROC					; COMDAT

; 128  : {

  00000	55		 push	 ebp
  00001	8b ec		 mov	 ebp, esp

; 129  :     uLong ret;
; 130  :     ret = (uLong)fwrite(buf, 1, (size_t)size, (FILE *)stream);

  00003	ff 75 0c	 push	 DWORD PTR _stream$[ebp]
  00006	ff 75 14	 push	 DWORD PTR _size$[ebp]
  00009	6a 01		 push	 1
  0000b	ff 75 10	 push	 DWORD PTR _buf$[ebp]
  0000e	ff 15 00 00 00
	00		 call	 DWORD PTR __imp__fwrite
  00014	83 c4 10	 add	 esp, 16			; 00000010H

; 131  :     return ret;
; 132  : }

  00017	5d		 pop	 ebp
  00018	c3		 ret	 0
_fwrite_file_func ENDP
_TEXT	ENDS
; Function compile flags: /Ogtp
; File e:\git\mcferront\anttrap-engine\3rdparty\zlib\zlib-1.2.5\contrib\minizip\ioapi.c
;	COMDAT _ftell_file_func
_TEXT	SEGMENT
_opaque$ = 8						; size = 4
_stream$ = 12						; size = 4
_ftell_file_func PROC					; COMDAT

; 135  : {

  00000	55		 push	 ebp
  00001	8b ec		 mov	 ebp, esp

; 136  :     long ret;
; 137  :     ret = ftell((FILE *)stream);

  00003	ff 75 0c	 push	 DWORD PTR _stream$[ebp]
  00006	ff 15 00 00 00
	00		 call	 DWORD PTR __imp__ftell
  0000c	83 c4 04	 add	 esp, 4

; 138  :     return ret;
; 139  : }

  0000f	5d		 pop	 ebp
  00010	c3		 ret	 0
_ftell_file_func ENDP
_TEXT	ENDS
; Function compile flags: /Ogtp
; File e:\git\mcferront\anttrap-engine\3rdparty\zlib\zlib-1.2.5\contrib\minizip\ioapi.c
;	COMDAT _ftell64_file_func
_TEXT	SEGMENT
_opaque$ = 8						; size = 4
_stream$ = 12						; size = 4
_ftell64_file_func PROC					; COMDAT

; 143  : {

  00000	55		 push	 ebp
  00001	8b ec		 mov	 ebp, esp

; 144  :     ZPOS64_T ret;
; 145  :     ret = ftello64((FILE *)stream);

  00003	ff 75 0c	 push	 DWORD PTR _stream$[ebp]
  00006	ff 15 00 00 00
	00		 call	 DWORD PTR __imp___ftelli64
  0000c	83 c4 04	 add	 esp, 4

; 146  :     return ret;
; 147  : }

  0000f	5d		 pop	 ebp
  00010	c3		 ret	 0
_ftell64_file_func ENDP
_TEXT	ENDS
; Function compile flags: /Ogtp
; File e:\git\mcferront\anttrap-engine\3rdparty\zlib\zlib-1.2.5\contrib\minizip\ioapi.c
;	COMDAT _fseek_file_func
_TEXT	SEGMENT
_opaque$ = 8						; size = 4
_stream$ = 12						; size = 4
_offset$ = 16						; size = 4
_origin$ = 20						; size = 4
_fseek_file_func PROC					; COMDAT

; 150  : {

  00000	55		 push	 ebp
  00001	8b ec		 mov	 ebp, esp

; 151  :     int fseek_origin=0;
; 152  :     long ret;
; 153  :     switch (origin)

  00003	8b 45 14	 mov	 eax, DWORD PTR _origin$[ebp]
  00006	83 e8 00	 sub	 eax, 0
  00009	74 1d		 je	 SHORT $LN6@fseek_file
  0000b	83 e8 01	 sub	 eax, 1
  0000e	74 11		 je	 SHORT $LN4@fseek_file
  00010	83 e8 01	 sub	 eax, 1
  00013	74 05		 je	 SHORT $LN5@fseek_file

; 163  :         break;
; 164  :     default: return -1;

  00015	83 c8 ff	 or	 eax, -1

; 170  : }

  00018	5d		 pop	 ebp
  00019	c3		 ret	 0
$LN5@fseek_file:

; 158  :     case ZLIB_FILEFUNC_SEEK_END :
; 159  :         fseek_origin = SEEK_END;

  0001a	b8 02 00 00 00	 mov	 eax, 2

; 160  :         break;

  0001f	eb 09		 jmp	 SHORT $LN2@fseek_file
$LN4@fseek_file:

; 154  :     {
; 155  :     case ZLIB_FILEFUNC_SEEK_CUR :
; 156  :         fseek_origin = SEEK_CUR;

  00021	b8 01 00 00 00	 mov	 eax, 1

; 157  :         break;

  00026	eb 02		 jmp	 SHORT $LN2@fseek_file
$LN6@fseek_file:

; 161  :     case ZLIB_FILEFUNC_SEEK_SET :
; 162  :         fseek_origin = SEEK_SET;

  00028	33 c0		 xor	 eax, eax
$LN2@fseek_file:
  0002a	56		 push	 esi

; 165  :     }
; 166  :     ret = 0;
; 167  :     if (fseek((FILE *)stream, offset, fseek_origin) != 0)

  0002b	50		 push	 eax
  0002c	ff 75 10	 push	 DWORD PTR _offset$[ebp]
  0002f	33 f6		 xor	 esi, esi
  00031	ff 75 0c	 push	 DWORD PTR _stream$[ebp]
  00034	ff 15 00 00 00
	00		 call	 DWORD PTR __imp__fseek
  0003a	83 c4 0c	 add	 esp, 12			; 0000000cH
  0003d	83 c9 ff	 or	 ecx, -1
  00040	85 c0		 test	 eax, eax
  00042	0f 45 f1	 cmovne	 esi, ecx

; 168  :         ret = -1;
; 169  :     return ret;

  00045	8b c6		 mov	 eax, esi
  00047	5e		 pop	 esi

; 170  : }

  00048	5d		 pop	 ebp
  00049	c3		 ret	 0
_fseek_file_func ENDP
_TEXT	ENDS
; Function compile flags: /Ogtp
; File e:\git\mcferront\anttrap-engine\3rdparty\zlib\zlib-1.2.5\contrib\minizip\ioapi.c
;	COMDAT _fseek64_file_func
_TEXT	SEGMENT
_opaque$ = 8						; size = 4
_stream$ = 12						; size = 4
_offset$ = 16						; size = 8
_origin$ = 24						; size = 4
_fseek64_file_func PROC					; COMDAT

; 173  : {

  00000	55		 push	 ebp
  00001	8b ec		 mov	 ebp, esp

; 174  :     int fseek_origin=0;
; 175  :     long ret;
; 176  :     switch (origin)

  00003	8b 45 18	 mov	 eax, DWORD PTR _origin$[ebp]
  00006	83 e8 00	 sub	 eax, 0
  00009	74 1d		 je	 SHORT $LN6@fseek64_fi
  0000b	83 e8 01	 sub	 eax, 1
  0000e	74 11		 je	 SHORT $LN4@fseek64_fi
  00010	83 e8 01	 sub	 eax, 1
  00013	74 05		 je	 SHORT $LN5@fseek64_fi

; 186  :         break;
; 187  :     default: return -1;

  00015	83 c8 ff	 or	 eax, -1

; 195  : }

  00018	5d		 pop	 ebp
  00019	c3		 ret	 0
$LN5@fseek64_fi:

; 181  :     case ZLIB_FILEFUNC_SEEK_END :
; 182  :         fseek_origin = SEEK_END;

  0001a	b8 02 00 00 00	 mov	 eax, 2

; 183  :         break;

  0001f	eb 09		 jmp	 SHORT $LN2@fseek64_fi
$LN4@fseek64_fi:

; 177  :     {
; 178  :     case ZLIB_FILEFUNC_SEEK_CUR :
; 179  :         fseek_origin = SEEK_CUR;

  00021	b8 01 00 00 00	 mov	 eax, 1

; 180  :         break;

  00026	eb 02		 jmp	 SHORT $LN2@fseek64_fi
$LN6@fseek64_fi:

; 184  :     case ZLIB_FILEFUNC_SEEK_SET :
; 185  :         fseek_origin = SEEK_SET;

  00028	33 c0		 xor	 eax, eax
$LN2@fseek64_fi:
  0002a	56		 push	 esi

; 188  :     }
; 189  :     ret = 0;
; 190  : 
; 191  :     if(fseeko64((FILE *)stream, offset, fseek_origin) != 0)

  0002b	50		 push	 eax
  0002c	ff 75 14	 push	 DWORD PTR _offset$[ebp+4]
  0002f	33 f6		 xor	 esi, esi
  00031	ff 75 10	 push	 DWORD PTR _offset$[ebp]
  00034	ff 75 0c	 push	 DWORD PTR _stream$[ebp]
  00037	ff 15 00 00 00
	00		 call	 DWORD PTR __imp___fseeki64
  0003d	83 c4 10	 add	 esp, 16			; 00000010H
  00040	83 c9 ff	 or	 ecx, -1
  00043	85 c0		 test	 eax, eax
  00045	0f 45 f1	 cmovne	 esi, ecx

; 192  :                         ret = -1;
; 193  : 
; 194  :     return ret;

  00048	8b c6		 mov	 eax, esi
  0004a	5e		 pop	 esi

; 195  : }

  0004b	5d		 pop	 ebp
  0004c	c3		 ret	 0
_fseek64_file_func ENDP
_TEXT	ENDS
; Function compile flags: /Ogtp
; File e:\git\mcferront\anttrap-engine\3rdparty\zlib\zlib-1.2.5\contrib\minizip\ioapi.c
;	COMDAT _fclose_file_func
_TEXT	SEGMENT
_opaque$ = 8						; size = 4
_stream$ = 12						; size = 4
_fclose_file_func PROC					; COMDAT

; 199  : {

  00000	55		 push	 ebp
  00001	8b ec		 mov	 ebp, esp

; 200  :     int ret;
; 201  :     ret = fclose((FILE *)stream);

  00003	ff 75 0c	 push	 DWORD PTR _stream$[ebp]
  00006	ff 15 00 00 00
	00		 call	 DWORD PTR __imp__fclose
  0000c	83 c4 04	 add	 esp, 4

; 202  :     return ret;
; 203  : }

  0000f	5d		 pop	 ebp
  00010	c3		 ret	 0
_fclose_file_func ENDP
_TEXT	ENDS
; Function compile flags: /Ogtp
; File e:\git\mcferront\anttrap-engine\3rdparty\zlib\zlib-1.2.5\contrib\minizip\ioapi.c
;	COMDAT _ferror_file_func
_TEXT	SEGMENT
_opaque$ = 8						; size = 4
_stream$ = 12						; size = 4
_ferror_file_func PROC					; COMDAT

; 206  : {

  00000	55		 push	 ebp
  00001	8b ec		 mov	 ebp, esp

; 207  :     int ret;
; 208  :     ret = ferror((FILE *)stream);

  00003	ff 75 0c	 push	 DWORD PTR _stream$[ebp]
  00006	ff 15 00 00 00
	00		 call	 DWORD PTR __imp__ferror
  0000c	83 c4 04	 add	 esp, 4

; 209  :     return ret;
; 210  : }

  0000f	5d		 pop	 ebp
  00010	c3		 ret	 0
_ferror_file_func ENDP
_TEXT	ENDS
; Function compile flags: /Ogtp
; File e:\git\mcferront\anttrap-engine\3rdparty\zlib\zlib-1.2.5\contrib\minizip\ioapi.c
;	COMDAT _fill_fopen64_filefunc
_TEXT	SEGMENT
_fill_fopen64_filefunc PROC				; COMDAT
; _pzlib_filefunc_def$ = ecx

; 227  :     pzlib_filefunc_def->zopen64_file = fopen64_file_func;

  00000	c7 01 00 00 00
	00		 mov	 DWORD PTR [ecx], OFFSET _fopen64_file_func

; 228  :     pzlib_filefunc_def->zread_file = fread_file_func;

  00006	c7 41 04 00 00
	00 00		 mov	 DWORD PTR [ecx+4], OFFSET _fread_file_func

; 229  :     pzlib_filefunc_def->zwrite_file = fwrite_file_func;

  0000d	c7 41 08 00 00
	00 00		 mov	 DWORD PTR [ecx+8], OFFSET _fwrite_file_func

; 230  :     pzlib_filefunc_def->ztell64_file = ftell64_file_func;

  00014	c7 41 0c 00 00
	00 00		 mov	 DWORD PTR [ecx+12], OFFSET _ftell64_file_func

; 231  :     pzlib_filefunc_def->zseek64_file = fseek64_file_func;

  0001b	c7 41 10 00 00
	00 00		 mov	 DWORD PTR [ecx+16], OFFSET _fseek64_file_func

; 232  :     pzlib_filefunc_def->zclose_file = fclose_file_func;

  00022	c7 41 14 00 00
	00 00		 mov	 DWORD PTR [ecx+20], OFFSET _fclose_file_func

; 233  :     pzlib_filefunc_def->zerror_file = ferror_file_func;

  00029	c7 41 18 00 00
	00 00		 mov	 DWORD PTR [ecx+24], OFFSET _ferror_file_func

; 234  :     pzlib_filefunc_def->opaque = NULL;

  00030	c7 41 1c 00 00
	00 00		 mov	 DWORD PTR [ecx+28], 0

; 235  : }

  00037	c3		 ret	 0
_fill_fopen64_filefunc ENDP
_TEXT	ENDS
END
