; Listing generated by Microsoft (R) Optimizing Compiler Version 19.15.26730.0 

	TITLE	e:\git\mcferront\anttrap-engine\3rdparty\zlib\zlib-1.2.5\contrib\minizip\iowin32.c
	.686P
	.XMM
	include listing.inc
	.model	flat

INCLUDELIB OLDNAMES

EXTRN	__imp__CloseHandle@4:PROC
EXTRN	__imp__CreateFileA@28:PROC
EXTRN	__imp__GetLastError@0:PROC
EXTRN	__imp__CreateFileW@28:PROC
EXTRN	__imp__SetFilePointer@16:PROC
EXTRN	__imp__WriteFile@20:PROC
EXTRN	__imp__ReadFile@20:PROC
PUBLIC	_fill_win32_filefunc64W
PUBLIC	_fill_win32_filefunc64A
PUBLIC	_fill_win32_filefunc64
PUBLIC	_fill_win32_filefunc
PUBLIC	_win32_error_file_func
PUBLIC	_win32_close_file_func
PUBLIC	_win32_seek64_file_func
PUBLIC	_win32_seek_file_func
PUBLIC	_win32_tell64_file_func
PUBLIC	_win32_tell_file_func
PUBLIC	_win32_write_file_func
PUBLIC	_win32_read_file_func
PUBLIC	_win32_open_file_func
PUBLIC	_win32_open64_file_funcW
PUBLIC	_win32_open64_file_funcA
PUBLIC	_win32_open64_file_func
; Function compile flags: /Ogtp
; File e:\git\mcferront\anttrap-engine\3rdparty\zlib\zlib-1.2.5\contrib\minizip\iowin32.c
;	COMDAT _win32_translate_open_mode
_TEXT	SEGMENT
_lpdwCreationDisposition$ = 8				; size = 4
_lpdwShareMode$ = 12					; size = 4
_lpdwFlagsAndAttributes$ = 16				; size = 4
_win32_translate_open_mode PROC				; COMDAT
; _mode$ = ecx
; _lpdwDesiredAccess$ = edx

; 48   : {

  00000	55		 push	 ebp
  00001	8b ec		 mov	 ebp, esp

; 49   :     *lpdwDesiredAccess = *lpdwShareMode = *lpdwFlagsAndAttributes = *lpdwCreationDisposition = 0;

  00003	8b 45 10	 mov	 eax, DWORD PTR _lpdwFlagsAndAttributes$[ebp]
  00006	56		 push	 esi
  00007	8b 75 08	 mov	 esi, DWORD PTR _lpdwCreationDisposition$[ebp]
  0000a	57		 push	 edi
  0000b	8b 7d 0c	 mov	 edi, DWORD PTR _lpdwShareMode$[ebp]
  0000e	c7 00 00 00 00
	00		 mov	 DWORD PTR [eax], 0

; 50   : 
; 51   :     if ((mode & ZLIB_FILEFUNC_MODE_READWRITEFILTER)==ZLIB_FILEFUNC_MODE_READ)

  00014	8b c1		 mov	 eax, ecx
  00016	24 03		 and	 al, 3
  00018	c7 06 00 00 00
	00		 mov	 DWORD PTR [esi], 0
  0001e	c7 02 00 00 00
	00		 mov	 DWORD PTR [edx], 0
  00024	c7 07 00 00 00
	00		 mov	 DWORD PTR [edi], 0
  0002a	3c 01		 cmp	 al, 1
  0002c	75 16		 jne	 SHORT $LN2@win32_tran

; 52   :     {
; 53   :         *lpdwDesiredAccess = GENERIC_READ;
; 54   :         *lpdwCreationDisposition = OPEN_EXISTING;
; 55   :         *lpdwShareMode = FILE_SHARE_READ;

  0002e	c7 07 01 00 00
	00		 mov	 DWORD PTR [edi], 1
  00034	5f		 pop	 edi
  00035	c7 06 03 00 00
	00		 mov	 DWORD PTR [esi], 3
  0003b	c7 02 00 00 00
	80		 mov	 DWORD PTR [edx], -2147483648 ; 80000000H

; 66   :     }
; 67   : }

  00041	5e		 pop	 esi
  00042	5d		 pop	 ebp
  00043	c3		 ret	 0
$LN2@win32_tran:

; 56   :     }
; 57   :     else if (mode & ZLIB_FILEFUNC_MODE_EXISTING)

  00044	f6 c1 04	 test	 cl, 4
  00047	74 10		 je	 SHORT $LN4@win32_tran

; 58   :     {
; 59   :         *lpdwDesiredAccess = GENERIC_WRITE | GENERIC_READ;
; 60   :         *lpdwCreationDisposition = OPEN_EXISTING;

  00049	5f		 pop	 edi
  0004a	c7 06 03 00 00
	00		 mov	 DWORD PTR [esi], 3

; 66   :     }
; 67   : }

  00050	c7 02 00 00 00
	c0		 mov	 DWORD PTR [edx], -1073741824 ; c0000000H
  00056	5e		 pop	 esi
  00057	5d		 pop	 ebp
  00058	c3		 ret	 0
$LN4@win32_tran:

; 61   :     }
; 62   :     else if (mode & ZLIB_FILEFUNC_MODE_CREATE)

  00059	f6 c1 08	 test	 cl, 8
  0005c	74 0c		 je	 SHORT $LN6@win32_tran

; 63   :     {
; 64   :         *lpdwDesiredAccess = GENERIC_WRITE | GENERIC_READ;
; 65   :         *lpdwCreationDisposition = CREATE_ALWAYS;

  0005e	c7 06 02 00 00
	00		 mov	 DWORD PTR [esi], 2

; 66   :     }
; 67   : }

  00064	c7 02 00 00 00
	c0		 mov	 DWORD PTR [edx], -1073741824 ; c0000000H
$LN6@win32_tran:
  0006a	5f		 pop	 edi
  0006b	5e		 pop	 esi
  0006c	5d		 pop	 ebp
  0006d	c3		 ret	 0
_win32_translate_open_mode ENDP
_TEXT	ENDS
; Function compile flags: /Ogtp
; File e:\git\mcferront\anttrap-engine\3rdparty\zlib\zlib-1.2.5\contrib\minizip\iowin32.c
;	COMDAT _win32_build_iowin
_TEXT	SEGMENT
_win32_build_iowin PROC					; COMDAT
; _hFile$ = ecx

; 70   : {

  00000	56		 push	 esi
  00001	8b f1		 mov	 esi, ecx

; 71   :     voidpf ret=NULL;
; 72   : 
; 73   :     if ((hFile != NULL) && (hFile != INVALID_HANDLE_VALUE))

  00003	85 f6		 test	 esi, esi
  00005	74 2f		 je	 SHORT $LN7@win32_buil
  00007	83 fe ff	 cmp	 esi, -1
  0000a	74 2a		 je	 SHORT $LN7@win32_buil

; 74   :     {
; 75   :         WIN32FILE_IOWIN w32fiow;
; 76   :         w32fiow.hf = hFile;
; 77   :         w32fiow.error = 0;
; 78   :         ret = malloc(sizeof(WIN32FILE_IOWIN));

  0000c	57		 push	 edi
  0000d	6a 08		 push	 8
  0000f	ff 15 00 00 00
	00		 call	 DWORD PTR __imp__malloc
  00015	8b f8		 mov	 edi, eax
  00017	83 c4 04	 add	 esp, 4

; 79   : 
; 80   :         if (ret==NULL)

  0001a	85 ff		 test	 edi, edi
  0001c	75 0c		 jne	 SHORT $LN3@win32_buil

; 81   :             CloseHandle(hFile);

  0001e	56		 push	 esi
  0001f	ff 15 00 00 00
	00		 call	 DWORD PTR __imp__CloseHandle@4

; 84   :     }
; 85   :     return ret;

  00025	8b c7		 mov	 eax, edi
  00027	5f		 pop	 edi
  00028	5e		 pop	 esi

; 86   : }

  00029	c3		 ret	 0
$LN3@win32_buil:

; 82   :         else
; 83   :             *((WIN32FILE_IOWIN*)ret) = w32fiow;

  0002a	89 37		 mov	 DWORD PTR [edi], esi
  0002c	c7 47 04 00 00
	00 00		 mov	 DWORD PTR [edi+4], 0
  00033	5f		 pop	 edi
  00034	5e		 pop	 esi

; 86   : }

  00035	c3		 ret	 0
$LN7@win32_buil:
  00036	33 c0		 xor	 eax, eax
  00038	5e		 pop	 esi
  00039	c3		 ret	 0
_win32_build_iowin ENDP
_TEXT	ENDS
; Function compile flags: /Ogtp
; File e:\git\mcferront\anttrap-engine\3rdparty\zlib\zlib-1.2.5\contrib\minizip\iowin32.c
;	COMDAT _win32_open64_file_func
_TEXT	SEGMENT
_dwShareMode$ = -16					; size = 4
_dwCreationDisposition$ = -12				; size = 4
_dwFlagsAndAttributes$ = -8				; size = 4
_dwDesiredAccess$ = -4					; size = 4
_opaque$ = 8						; size = 4
_filename$ = 12						; size = 4
_mode$ = 16						; size = 4
_win32_open64_file_func PROC				; COMDAT

; 89   : {

  00000	55		 push	 ebp
  00001	8b ec		 mov	 ebp, esp

; 90   :     const char* mode_fopen = NULL;
; 91   :     DWORD dwDesiredAccess,dwCreationDisposition,dwShareMode,dwFlagsAndAttributes ;
; 92   :     HANDLE hFile = NULL;
; 93   : 
; 94   :     win32_translate_open_mode(mode,&dwDesiredAccess,&dwCreationDisposition,&dwShareMode,&dwFlagsAndAttributes);

  00003	8b 4d 10	 mov	 ecx, DWORD PTR _mode$[ebp]
  00006	8d 45 f8	 lea	 eax, DWORD PTR _dwFlagsAndAttributes$[ebp]
  00009	83 ec 10	 sub	 esp, 16			; 00000010H
  0000c	8d 55 fc	 lea	 edx, DWORD PTR _dwDesiredAccess$[ebp]
  0000f	56		 push	 esi
  00010	50		 push	 eax
  00011	8d 45 f0	 lea	 eax, DWORD PTR _dwShareMode$[ebp]
  00014	33 f6		 xor	 esi, esi
  00016	50		 push	 eax
  00017	8d 45 f4	 lea	 eax, DWORD PTR _dwCreationDisposition$[ebp]
  0001a	50		 push	 eax
  0001b	e8 00 00 00 00	 call	 _win32_translate_open_mode

; 95   : 
; 96   :     if ((filename!=NULL) && (dwDesiredAccess != 0))

  00020	8b 4d 0c	 mov	 ecx, DWORD PTR _filename$[ebp]
  00023	83 c4 0c	 add	 esp, 12			; 0000000cH
  00026	85 c9		 test	 ecx, ecx
  00028	74 1c		 je	 SHORT $LN2@win32_open
  0002a	8b 45 fc	 mov	 eax, DWORD PTR _dwDesiredAccess$[ebp]
  0002d	85 c0		 test	 eax, eax
  0002f	74 15		 je	 SHORT $LN2@win32_open

; 97   :         hFile = CreateFile((LPCTSTR)filename, dwDesiredAccess, dwShareMode, NULL, dwCreationDisposition, dwFlagsAndAttributes, NULL);

  00031	56		 push	 esi
  00032	ff 75 f8	 push	 DWORD PTR _dwFlagsAndAttributes$[ebp]
  00035	ff 75 f4	 push	 DWORD PTR _dwCreationDisposition$[ebp]
  00038	56		 push	 esi
  00039	ff 75 f0	 push	 DWORD PTR _dwShareMode$[ebp]
  0003c	50		 push	 eax
  0003d	51		 push	 ecx
  0003e	ff 15 00 00 00
	00		 call	 DWORD PTR __imp__CreateFileA@28
  00044	8b f0		 mov	 esi, eax
$LN2@win32_open:

; 98   : 
; 99   :     return win32_build_iowin(hFile);

  00046	8b ce		 mov	 ecx, esi
  00048	e8 00 00 00 00	 call	 _win32_build_iowin
  0004d	5e		 pop	 esi

; 100  : }

  0004e	8b e5		 mov	 esp, ebp
  00050	5d		 pop	 ebp
  00051	c3		 ret	 0
_win32_open64_file_func ENDP
_TEXT	ENDS
; Function compile flags: /Ogtp
; File e:\git\mcferront\anttrap-engine\3rdparty\zlib\zlib-1.2.5\contrib\minizip\iowin32.c
;	COMDAT _win32_open64_file_funcA
_TEXT	SEGMENT
_dwShareMode$ = -16					; size = 4
_dwCreationDisposition$ = -12				; size = 4
_dwFlagsAndAttributes$ = -8				; size = 4
_dwDesiredAccess$ = -4					; size = 4
_opaque$ = 8						; size = 4
_filename$ = 12						; size = 4
_mode$ = 16						; size = 4
_win32_open64_file_funcA PROC				; COMDAT

; 104  : {

  00000	55		 push	 ebp
  00001	8b ec		 mov	 ebp, esp

; 105  :     const char* mode_fopen = NULL;
; 106  :     DWORD dwDesiredAccess,dwCreationDisposition,dwShareMode,dwFlagsAndAttributes ;
; 107  :     HANDLE hFile = NULL;
; 108  : 
; 109  :     win32_translate_open_mode(mode,&dwDesiredAccess,&dwCreationDisposition,&dwShareMode,&dwFlagsAndAttributes);

  00003	8b 4d 10	 mov	 ecx, DWORD PTR _mode$[ebp]
  00006	8d 45 f8	 lea	 eax, DWORD PTR _dwFlagsAndAttributes$[ebp]
  00009	83 ec 10	 sub	 esp, 16			; 00000010H
  0000c	8d 55 fc	 lea	 edx, DWORD PTR _dwDesiredAccess$[ebp]
  0000f	56		 push	 esi
  00010	50		 push	 eax
  00011	8d 45 f0	 lea	 eax, DWORD PTR _dwShareMode$[ebp]
  00014	33 f6		 xor	 esi, esi
  00016	50		 push	 eax
  00017	8d 45 f4	 lea	 eax, DWORD PTR _dwCreationDisposition$[ebp]
  0001a	50		 push	 eax
  0001b	e8 00 00 00 00	 call	 _win32_translate_open_mode

; 110  : 
; 111  :     if ((filename!=NULL) && (dwDesiredAccess != 0))

  00020	8b 4d 0c	 mov	 ecx, DWORD PTR _filename$[ebp]
  00023	83 c4 0c	 add	 esp, 12			; 0000000cH
  00026	85 c9		 test	 ecx, ecx
  00028	74 1c		 je	 SHORT $LN2@win32_open
  0002a	8b 45 fc	 mov	 eax, DWORD PTR _dwDesiredAccess$[ebp]
  0002d	85 c0		 test	 eax, eax
  0002f	74 15		 je	 SHORT $LN2@win32_open

; 112  :         hFile = CreateFileA((LPCSTR)filename, dwDesiredAccess, dwShareMode, NULL, dwCreationDisposition, dwFlagsAndAttributes, NULL);

  00031	56		 push	 esi
  00032	ff 75 f8	 push	 DWORD PTR _dwFlagsAndAttributes$[ebp]
  00035	ff 75 f4	 push	 DWORD PTR _dwCreationDisposition$[ebp]
  00038	56		 push	 esi
  00039	ff 75 f0	 push	 DWORD PTR _dwShareMode$[ebp]
  0003c	50		 push	 eax
  0003d	51		 push	 ecx
  0003e	ff 15 00 00 00
	00		 call	 DWORD PTR __imp__CreateFileA@28
  00044	8b f0		 mov	 esi, eax
$LN2@win32_open:

; 113  : 
; 114  :     return win32_build_iowin(hFile);

  00046	8b ce		 mov	 ecx, esi
  00048	e8 00 00 00 00	 call	 _win32_build_iowin
  0004d	5e		 pop	 esi

; 115  : }

  0004e	8b e5		 mov	 esp, ebp
  00050	5d		 pop	 ebp
  00051	c3		 ret	 0
_win32_open64_file_funcA ENDP
_TEXT	ENDS
; Function compile flags: /Ogtp
; File e:\git\mcferront\anttrap-engine\3rdparty\zlib\zlib-1.2.5\contrib\minizip\iowin32.c
;	COMDAT _win32_open64_file_funcW
_TEXT	SEGMENT
_dwShareMode$ = -16					; size = 4
_dwCreationDisposition$ = -12				; size = 4
_dwFlagsAndAttributes$ = -8				; size = 4
_dwDesiredAccess$ = -4					; size = 4
_opaque$ = 8						; size = 4
_filename$ = 12						; size = 4
_mode$ = 16						; size = 4
_win32_open64_file_funcW PROC				; COMDAT

; 119  : {

  00000	55		 push	 ebp
  00001	8b ec		 mov	 ebp, esp

; 120  :     const char* mode_fopen = NULL;
; 121  :     DWORD dwDesiredAccess,dwCreationDisposition,dwShareMode,dwFlagsAndAttributes ;
; 122  :     HANDLE hFile = NULL;
; 123  : 
; 124  :     win32_translate_open_mode(mode,&dwDesiredAccess,&dwCreationDisposition,&dwShareMode,&dwFlagsAndAttributes);

  00003	8b 4d 10	 mov	 ecx, DWORD PTR _mode$[ebp]
  00006	8d 45 f8	 lea	 eax, DWORD PTR _dwFlagsAndAttributes$[ebp]
  00009	83 ec 10	 sub	 esp, 16			; 00000010H
  0000c	8d 55 fc	 lea	 edx, DWORD PTR _dwDesiredAccess$[ebp]
  0000f	56		 push	 esi
  00010	50		 push	 eax
  00011	8d 45 f0	 lea	 eax, DWORD PTR _dwShareMode$[ebp]
  00014	33 f6		 xor	 esi, esi
  00016	50		 push	 eax
  00017	8d 45 f4	 lea	 eax, DWORD PTR _dwCreationDisposition$[ebp]
  0001a	50		 push	 eax
  0001b	e8 00 00 00 00	 call	 _win32_translate_open_mode

; 125  : 
; 126  :     if ((filename!=NULL) && (dwDesiredAccess != 0))

  00020	8b 4d 0c	 mov	 ecx, DWORD PTR _filename$[ebp]
  00023	83 c4 0c	 add	 esp, 12			; 0000000cH
  00026	85 c9		 test	 ecx, ecx
  00028	74 1c		 je	 SHORT $LN2@win32_open
  0002a	8b 45 fc	 mov	 eax, DWORD PTR _dwDesiredAccess$[ebp]
  0002d	85 c0		 test	 eax, eax
  0002f	74 15		 je	 SHORT $LN2@win32_open

; 127  :         hFile = CreateFileW((LPCWSTR)filename, dwDesiredAccess, dwShareMode, NULL, dwCreationDisposition, dwFlagsAndAttributes, NULL);

  00031	56		 push	 esi
  00032	ff 75 f8	 push	 DWORD PTR _dwFlagsAndAttributes$[ebp]
  00035	ff 75 f4	 push	 DWORD PTR _dwCreationDisposition$[ebp]
  00038	56		 push	 esi
  00039	ff 75 f0	 push	 DWORD PTR _dwShareMode$[ebp]
  0003c	50		 push	 eax
  0003d	51		 push	 ecx
  0003e	ff 15 00 00 00
	00		 call	 DWORD PTR __imp__CreateFileW@28
  00044	8b f0		 mov	 esi, eax
$LN2@win32_open:

; 128  : 
; 129  :     return win32_build_iowin(hFile);

  00046	8b ce		 mov	 ecx, esi
  00048	e8 00 00 00 00	 call	 _win32_build_iowin
  0004d	5e		 pop	 esi

; 130  : }

  0004e	8b e5		 mov	 esp, ebp
  00050	5d		 pop	 ebp
  00051	c3		 ret	 0
_win32_open64_file_funcW ENDP
_TEXT	ENDS
; Function compile flags: /Ogtp
; File e:\git\mcferront\anttrap-engine\3rdparty\zlib\zlib-1.2.5\contrib\minizip\iowin32.c
;	COMDAT _win32_open_file_func
_TEXT	SEGMENT
_dwShareMode$ = -16					; size = 4
_dwCreationDisposition$ = -12				; size = 4
_dwFlagsAndAttributes$ = -8				; size = 4
_dwDesiredAccess$ = -4					; size = 4
_opaque$ = 8						; size = 4
_filename$ = 12						; size = 4
_mode$ = 16						; size = 4
_win32_open_file_func PROC				; COMDAT

; 134  : {

  00000	55		 push	 ebp
  00001	8b ec		 mov	 ebp, esp

; 135  :     const char* mode_fopen = NULL;
; 136  :     DWORD dwDesiredAccess,dwCreationDisposition,dwShareMode,dwFlagsAndAttributes ;
; 137  :     HANDLE hFile = NULL;
; 138  : 
; 139  :     win32_translate_open_mode(mode,&dwDesiredAccess,&dwCreationDisposition,&dwShareMode,&dwFlagsAndAttributes);

  00003	8b 4d 10	 mov	 ecx, DWORD PTR _mode$[ebp]
  00006	8d 45 f8	 lea	 eax, DWORD PTR _dwFlagsAndAttributes$[ebp]
  00009	83 ec 10	 sub	 esp, 16			; 00000010H
  0000c	8d 55 fc	 lea	 edx, DWORD PTR _dwDesiredAccess$[ebp]
  0000f	56		 push	 esi
  00010	50		 push	 eax
  00011	8d 45 f0	 lea	 eax, DWORD PTR _dwShareMode$[ebp]
  00014	33 f6		 xor	 esi, esi
  00016	50		 push	 eax
  00017	8d 45 f4	 lea	 eax, DWORD PTR _dwCreationDisposition$[ebp]
  0001a	50		 push	 eax
  0001b	e8 00 00 00 00	 call	 _win32_translate_open_mode

; 140  : 
; 141  :     if ((filename!=NULL) && (dwDesiredAccess != 0))

  00020	8b 4d 0c	 mov	 ecx, DWORD PTR _filename$[ebp]
  00023	83 c4 0c	 add	 esp, 12			; 0000000cH
  00026	85 c9		 test	 ecx, ecx
  00028	74 1c		 je	 SHORT $LN2@win32_open
  0002a	8b 45 fc	 mov	 eax, DWORD PTR _dwDesiredAccess$[ebp]
  0002d	85 c0		 test	 eax, eax
  0002f	74 15		 je	 SHORT $LN2@win32_open

; 142  :         hFile = CreateFile((LPCTSTR)filename, dwDesiredAccess, dwShareMode, NULL, dwCreationDisposition, dwFlagsAndAttributes, NULL);

  00031	56		 push	 esi
  00032	ff 75 f8	 push	 DWORD PTR _dwFlagsAndAttributes$[ebp]
  00035	ff 75 f4	 push	 DWORD PTR _dwCreationDisposition$[ebp]
  00038	56		 push	 esi
  00039	ff 75 f0	 push	 DWORD PTR _dwShareMode$[ebp]
  0003c	50		 push	 eax
  0003d	51		 push	 ecx
  0003e	ff 15 00 00 00
	00		 call	 DWORD PTR __imp__CreateFileA@28
  00044	8b f0		 mov	 esi, eax
$LN2@win32_open:

; 143  : 
; 144  :     return win32_build_iowin(hFile);

  00046	8b ce		 mov	 ecx, esi
  00048	e8 00 00 00 00	 call	 _win32_build_iowin
  0004d	5e		 pop	 esi

; 145  : }

  0004e	8b e5		 mov	 esp, ebp
  00050	5d		 pop	 ebp
  00051	c3		 ret	 0
_win32_open_file_func ENDP
_TEXT	ENDS
; Function compile flags: /Ogtp
; File e:\git\mcferront\anttrap-engine\3rdparty\zlib\zlib-1.2.5\contrib\minizip\iowin32.c
;	COMDAT _win32_read_file_func
_TEXT	SEGMENT
_ret$ = -4						; size = 4
_opaque$ = 8						; size = 4
_stream$ = 12						; size = 4
_buf$ = 16						; size = 4
_size$ = 20						; size = 4
_win32_read_file_func PROC				; COMDAT

; 149  : {

  00000	55		 push	 ebp
  00001	8b ec		 mov	 ebp, esp
  00003	51		 push	 ecx
  00004	56		 push	 esi

; 150  :     uLong ret=0;
; 151  :     HANDLE hFile = NULL;
; 152  :     if (stream!=NULL)

  00005	8b 75 0c	 mov	 esi, DWORD PTR _stream$[ebp]
  00008	c7 45 fc 00 00
	00 00		 mov	 DWORD PTR _ret$[ebp], 0
  0000f	85 f6		 test	 esi, esi
  00011	74 36		 je	 SHORT $LN9@win32_read

; 153  :         hFile = ((WIN32FILE_IOWIN*)stream) -> hf;

  00013	8b 06		 mov	 eax, DWORD PTR [esi]

; 154  : 
; 155  :     if (hFile != NULL)

  00015	85 c0		 test	 eax, eax
  00017	74 30		 je	 SHORT $LN9@win32_read

; 156  :     {
; 157  :         if (!ReadFile(hFile, buf, size, &ret, NULL))

  00019	6a 00		 push	 0
  0001b	8d 4d fc	 lea	 ecx, DWORD PTR _ret$[ebp]
  0001e	51		 push	 ecx
  0001f	ff 75 14	 push	 DWORD PTR _size$[ebp]
  00022	ff 75 10	 push	 DWORD PTR _buf$[ebp]
  00025	50		 push	 eax
  00026	ff 15 00 00 00
	00		 call	 DWORD PTR __imp__ReadFile@20
  0002c	85 c0		 test	 eax, eax
  0002e	75 11		 jne	 SHORT $LN7@win32_read

; 158  :         {
; 159  :             DWORD dwErr = GetLastError();

  00030	ff 15 00 00 00
	00		 call	 DWORD PTR __imp__GetLastError@0

; 160  :             if (dwErr == ERROR_HANDLE_EOF)

  00036	33 c9		 xor	 ecx, ecx
  00038	83 f8 26	 cmp	 eax, 38			; 00000026H
  0003b	0f 44 c1	 cmove	 eax, ecx

; 161  :                 dwErr = 0;
; 162  :             ((WIN32FILE_IOWIN*)stream) -> error=(int)dwErr;

  0003e	89 46 04	 mov	 DWORD PTR [esi+4], eax
$LN7@win32_read:

; 163  :         }
; 164  :     }
; 165  : 
; 166  :     return ret;
; 167  : }

  00041	8b 45 fc	 mov	 eax, DWORD PTR _ret$[ebp]
  00044	5e		 pop	 esi
  00045	8b e5		 mov	 esp, ebp
  00047	5d		 pop	 ebp
  00048	c3		 ret	 0
$LN9@win32_read:
  00049	33 c0		 xor	 eax, eax
  0004b	5e		 pop	 esi
  0004c	8b e5		 mov	 esp, ebp
  0004e	5d		 pop	 ebp
  0004f	c3		 ret	 0
_win32_read_file_func ENDP
_TEXT	ENDS
; Function compile flags: /Ogtp
; File e:\git\mcferront\anttrap-engine\3rdparty\zlib\zlib-1.2.5\contrib\minizip\iowin32.c
;	COMDAT _win32_write_file_func
_TEXT	SEGMENT
_ret$ = -4						; size = 4
_opaque$ = 8						; size = 4
_stream$ = 12						; size = 4
_buf$ = 16						; size = 4
_size$ = 20						; size = 4
_win32_write_file_func PROC				; COMDAT

; 171  : {

  00000	55		 push	 ebp
  00001	8b ec		 mov	 ebp, esp
  00003	51		 push	 ecx
  00004	56		 push	 esi

; 172  :     uLong ret=0;
; 173  :     HANDLE hFile = NULL;
; 174  :     if (stream!=NULL)

  00005	8b 75 0c	 mov	 esi, DWORD PTR _stream$[ebp]
  00008	c7 45 fc 00 00
	00 00		 mov	 DWORD PTR _ret$[ebp], 0
  0000f	85 f6		 test	 esi, esi
  00011	74 36		 je	 SHORT $LN9@win32_writ

; 175  :         hFile = ((WIN32FILE_IOWIN*)stream) -> hf;

  00013	8b 06		 mov	 eax, DWORD PTR [esi]

; 176  : 
; 177  :     if (hFile != NULL)

  00015	85 c0		 test	 eax, eax
  00017	74 30		 je	 SHORT $LN9@win32_writ

; 178  :     {
; 179  :         if (!WriteFile(hFile, buf, size, &ret, NULL))

  00019	6a 00		 push	 0
  0001b	8d 4d fc	 lea	 ecx, DWORD PTR _ret$[ebp]
  0001e	51		 push	 ecx
  0001f	ff 75 14	 push	 DWORD PTR _size$[ebp]
  00022	ff 75 10	 push	 DWORD PTR _buf$[ebp]
  00025	50		 push	 eax
  00026	ff 15 00 00 00
	00		 call	 DWORD PTR __imp__WriteFile@20
  0002c	85 c0		 test	 eax, eax
  0002e	75 11		 jne	 SHORT $LN7@win32_writ

; 180  :         {
; 181  :             DWORD dwErr = GetLastError();

  00030	ff 15 00 00 00
	00		 call	 DWORD PTR __imp__GetLastError@0

; 182  :             if (dwErr == ERROR_HANDLE_EOF)

  00036	33 c9		 xor	 ecx, ecx
  00038	83 f8 26	 cmp	 eax, 38			; 00000026H
  0003b	0f 44 c1	 cmove	 eax, ecx

; 183  :                 dwErr = 0;
; 184  :             ((WIN32FILE_IOWIN*)stream) -> error=(int)dwErr;

  0003e	89 46 04	 mov	 DWORD PTR [esi+4], eax
$LN7@win32_writ:

; 185  :         }
; 186  :     }
; 187  : 
; 188  :     return ret;
; 189  : }

  00041	8b 45 fc	 mov	 eax, DWORD PTR _ret$[ebp]
  00044	5e		 pop	 esi
  00045	8b e5		 mov	 esp, ebp
  00047	5d		 pop	 ebp
  00048	c3		 ret	 0
$LN9@win32_writ:
  00049	33 c0		 xor	 eax, eax
  0004b	5e		 pop	 esi
  0004c	8b e5		 mov	 esp, ebp
  0004e	5d		 pop	 ebp
  0004f	c3		 ret	 0
_win32_write_file_func ENDP
_TEXT	ENDS
; Function compile flags: /Ogtp
; File e:\git\mcferront\anttrap-engine\3rdparty\zlib\zlib-1.2.5\contrib\minizip\iowin32.c
;	COMDAT _win32_tell_file_func
_TEXT	SEGMENT
_opaque$ = 8						; size = 4
_stream$ = 12						; size = 4
_win32_tell_file_func PROC				; COMDAT

; 192  : {

  00000	55		 push	 ebp
  00001	8b ec		 mov	 ebp, esp
  00003	56		 push	 esi

; 193  :     long ret=-1;
; 194  :     HANDLE hFile = NULL;
; 195  :     if (stream!=NULL)

  00004	8b 75 0c	 mov	 esi, DWORD PTR _stream$[ebp]
  00007	85 f6		 test	 esi, esi
  00009	74 21		 je	 SHORT $LN8@win32_tell

; 196  :         hFile = ((WIN32FILE_IOWIN*)stream) -> hf;

  0000b	8b 06		 mov	 eax, DWORD PTR [esi]

; 197  :     if (hFile != NULL)

  0000d	85 c0		 test	 eax, eax
  0000f	74 1b		 je	 SHORT $LN8@win32_tell

; 198  :     {
; 199  :         DWORD dwSet = SetFilePointer(hFile, 0, NULL, FILE_CURRENT);

  00011	6a 01		 push	 1
  00013	6a 00		 push	 0
  00015	6a 00		 push	 0
  00017	50		 push	 eax
  00018	ff 15 00 00 00
	00		 call	 DWORD PTR __imp__SetFilePointer@16

; 200  :         if (dwSet == INVALID_SET_FILE_POINTER)

  0001e	83 f8 ff	 cmp	 eax, -1
  00021	75 0c		 jne	 SHORT $LN5@win32_tell

; 201  :         {
; 202  :             DWORD dwErr = GetLastError();

  00023	ff 15 00 00 00
	00		 call	 DWORD PTR __imp__GetLastError@0

; 203  :             ((WIN32FILE_IOWIN*)stream) -> error=(int)dwErr;

  00029	89 46 04	 mov	 DWORD PTR [esi+4], eax
$LN8@win32_tell:

; 204  :             ret = -1;
; 205  :         }
; 206  :         else
; 207  :             ret=(long)dwSet;
; 208  :     }
; 209  :     return ret;
; 210  : }

  0002c	83 c8 ff	 or	 eax, -1
$LN5@win32_tell:
  0002f	5e		 pop	 esi
  00030	5d		 pop	 ebp
  00031	c3		 ret	 0
_win32_tell_file_func ENDP
_TEXT	ENDS
; Function compile flags: /Ogtp
; File e:\git\mcferront\anttrap-engine\3rdparty\zlib\zlib-1.2.5\contrib\minizip\iowin32.c
;	COMDAT _win32_tell64_file_func
_TEXT	SEGMENT
_li$1 = -8						; size = 8
_opaque$ = 8						; size = 4
_stream$ = 12						; size = 4
_win32_tell64_file_func PROC				; COMDAT

; 213  : {

  00000	55		 push	 ebp
  00001	8b ec		 mov	 ebp, esp
  00003	83 e4 f8	 and	 esp, -8			; fffffff8H
  00006	83 ec 0c	 sub	 esp, 12			; 0000000cH
  00009	56		 push	 esi

; 214  :     ZPOS64_T ret= (ZPOS64_T)-1;
; 215  :     HANDLE hFile = NULL;
; 216  :     if (stream!=NULL)

  0000a	8b 75 0c	 mov	 esi, DWORD PTR _stream$[ebp]
  0000d	85 f6		 test	 esi, esi
  0000f	74 3b		 je	 SHORT $LN8@win32_tell

; 217  :         hFile = ((WIN32FILE_IOWIN*)stream)->hf;

  00011	8b 06		 mov	 eax, DWORD PTR [esi]

; 218  : 
; 219  :     if (hFile)

  00013	85 c0		 test	 eax, eax
  00015	74 35		 je	 SHORT $LN8@win32_tell

; 220  :     {
; 221  :         LARGE_INTEGER li;
; 222  :         li.QuadPart = 0;
; 223  :         li.u.LowPart = SetFilePointer(hFile, li.u.LowPart, &li.u.HighPart, FILE_CURRENT);

  00017	6a 01		 push	 1
  00019	8d 4c 24 10	 lea	 ecx, DWORD PTR _li$1[esp+24]
  0001d	0f 57 c0	 xorps	 xmm0, xmm0
  00020	51		 push	 ecx
  00021	6a 00		 push	 0
  00023	50		 push	 eax
  00024	66 0f 13 44 24
	18		 movlpd	 QWORD PTR _li$1[esp+32], xmm0
  0002a	ff 15 00 00 00
	00		 call	 DWORD PTR __imp__SetFilePointer@16
  00030	89 44 24 08	 mov	 DWORD PTR _li$1[esp+16], eax

; 224  :         if ( (li.LowPart == 0xFFFFFFFF) && (GetLastError() != NO_ERROR))

  00034	83 f8 ff	 cmp	 eax, -1
  00037	75 22		 jne	 SHORT $LN4@win32_tell
  00039	ff 15 00 00 00
	00		 call	 DWORD PTR __imp__GetLastError@0
  0003f	85 c0		 test	 eax, eax
  00041	74 14		 je	 SHORT $LN9@win32_tell

; 225  :         {
; 226  :             DWORD dwErr = GetLastError();

  00043	ff 15 00 00 00
	00		 call	 DWORD PTR __imp__GetLastError@0

; 227  :             ((WIN32FILE_IOWIN*)stream) -> error=(int)dwErr;

  00049	89 46 04	 mov	 DWORD PTR [esi+4], eax
$LN8@win32_tell:

; 234  : }

  0004c	83 c8 ff	 or	 eax, -1
  0004f	83 ca ff	 or	 edx, -1
  00052	5e		 pop	 esi
  00053	8b e5		 mov	 esp, ebp
  00055	5d		 pop	 ebp
  00056	c3		 ret	 0
$LN9@win32_tell:

; 224  :         if ( (li.LowPart == 0xFFFFFFFF) && (GetLastError() != NO_ERROR))

  00057	8b 44 24 08	 mov	 eax, DWORD PTR _li$1[esp+16]
$LN4@win32_tell:

; 228  :             ret = (ZPOS64_T)-1;
; 229  :         }
; 230  :         else
; 231  :             ret=li.QuadPart;
; 232  :     }
; 233  :     return ret;

  0005b	8b 54 24 0c	 mov	 edx, DWORD PTR _li$1[esp+20]

; 234  : }

  0005f	5e		 pop	 esi
  00060	8b e5		 mov	 esp, ebp
  00062	5d		 pop	 ebp
  00063	c3		 ret	 0
_win32_tell64_file_func ENDP
_TEXT	ENDS
; Function compile flags: /Ogtp
; File e:\git\mcferront\anttrap-engine\3rdparty\zlib\zlib-1.2.5\contrib\minizip\iowin32.c
;	COMDAT _win32_seek_file_func
_TEXT	SEGMENT
_opaque$ = 8						; size = 4
_stream$ = 12						; size = 4
_offset$ = 16						; size = 4
_origin$ = 20						; size = 4
_win32_seek_file_func PROC				; COMDAT

; 238  : {

  00000	55		 push	 ebp
  00001	8b ec		 mov	 ebp, esp
  00003	56		 push	 esi

; 239  :     DWORD dwMoveMethod=0xFFFFFFFF;
; 240  :     HANDLE hFile = NULL;
; 241  : 
; 242  :     long ret=-1;
; 243  :     if (stream!=NULL)

  00004	8b 75 0c	 mov	 esi, DWORD PTR _stream$[ebp]
  00007	33 d2		 xor	 edx, edx
  00009	83 c9 ff	 or	 ecx, -1
  0000c	85 f6		 test	 esi, esi
  0000e	74 02		 je	 SHORT $LN4@win32_seek

; 244  :         hFile = ((WIN32FILE_IOWIN*)stream) -> hf;

  00010	8b 16		 mov	 edx, DWORD PTR [esi]
$LN4@win32_seek:

; 245  :     switch (origin)

  00012	8b 45 14	 mov	 eax, DWORD PTR _origin$[ebp]
  00015	83 e8 00	 sub	 eax, 0
  00018	74 1e		 je	 SHORT $LN7@win32_seek
  0001a	83 e8 01	 sub	 eax, 1
  0001d	74 12		 je	 SHORT $LN5@win32_seek
  0001f	83 e8 01	 sub	 eax, 1
  00022	74 06		 je	 SHORT $LN6@win32_seek

; 255  :         break;
; 256  :     default: return -1;

  00024	83 c8 ff	 or	 eax, -1
  00027	5e		 pop	 esi

; 272  : }

  00028	5d		 pop	 ebp
  00029	c3		 ret	 0
$LN6@win32_seek:

; 250  :     case ZLIB_FILEFUNC_SEEK_END :
; 251  :         dwMoveMethod = FILE_END;

  0002a	b8 02 00 00 00	 mov	 eax, 2

; 252  :         break;

  0002f	eb 09		 jmp	 SHORT $LN2@win32_seek
$LN5@win32_seek:

; 246  :     {
; 247  :     case ZLIB_FILEFUNC_SEEK_CUR :
; 248  :         dwMoveMethod = FILE_CURRENT;

  00031	b8 01 00 00 00	 mov	 eax, 1

; 249  :         break;

  00036	eb 02		 jmp	 SHORT $LN2@win32_seek
$LN7@win32_seek:

; 253  :     case ZLIB_FILEFUNC_SEEK_SET :
; 254  :         dwMoveMethod = FILE_BEGIN;

  00038	33 c0		 xor	 eax, eax
$LN2@win32_seek:

; 257  :     }
; 258  : 
; 259  :     if (hFile != NULL)

  0003a	85 d2		 test	 edx, edx
  0003c	74 25		 je	 SHORT $LN11@win32_seek

; 260  :     {
; 261  :         DWORD dwSet = SetFilePointer(hFile, offset, NULL, dwMoveMethod);

  0003e	50		 push	 eax
  0003f	6a 00		 push	 0
  00041	ff 75 10	 push	 DWORD PTR _offset$[ebp]
  00044	52		 push	 edx
  00045	ff 15 00 00 00
	00		 call	 DWORD PTR __imp__SetFilePointer@16

; 262  :         if (dwSet == INVALID_SET_FILE_POINTER)

  0004b	83 f8 ff	 cmp	 eax, -1
  0004e	75 11		 jne	 SHORT $LN10@win32_seek

; 263  :         {
; 264  :             DWORD dwErr = GetLastError();

  00050	ff 15 00 00 00
	00		 call	 DWORD PTR __imp__GetLastError@0

; 265  :             ((WIN32FILE_IOWIN*)stream) -> error=(int)dwErr;

  00056	89 46 04	 mov	 DWORD PTR [esi+4], eax

; 266  :             ret = -1;

  00059	83 c9 ff	 or	 ecx, -1

; 270  :     }
; 271  :     return ret;

  0005c	8b c1		 mov	 eax, ecx
  0005e	5e		 pop	 esi

; 272  : }

  0005f	5d		 pop	 ebp
  00060	c3		 ret	 0
$LN10@win32_seek:

; 267  :         }
; 268  :         else
; 269  :             ret=0;

  00061	33 c9		 xor	 ecx, ecx
$LN11@win32_seek:

; 270  :     }
; 271  :     return ret;

  00063	8b c1		 mov	 eax, ecx
  00065	5e		 pop	 esi

; 272  : }

  00066	5d		 pop	 ebp
  00067	c3		 ret	 0
_win32_seek_file_func ENDP
_TEXT	ENDS
; Function compile flags: /Ogtp
; File e:\git\mcferront\anttrap-engine\3rdparty\zlib\zlib-1.2.5\contrib\minizip\iowin32.c
;	COMDAT _win32_seek64_file_func
_TEXT	SEGMENT
_opaque$ = 8						; size = 4
_stream$ = 12						; size = 4
_offset$ = 16						; size = 8
_origin$ = 24						; size = 4
_win32_seek64_file_func PROC				; COMDAT

; 275  : {

  00000	55		 push	 ebp
  00001	8b ec		 mov	 ebp, esp
  00003	56		 push	 esi

; 276  :     DWORD dwMoveMethod=0xFFFFFFFF;
; 277  :     HANDLE hFile = NULL;
; 278  :     long ret=-1;
; 279  : 
; 280  :     if (stream!=NULL)

  00004	8b 75 0c	 mov	 esi, DWORD PTR _stream$[ebp]
  00007	33 d2		 xor	 edx, edx
  00009	83 c9 ff	 or	 ecx, -1
  0000c	85 f6		 test	 esi, esi
  0000e	74 02		 je	 SHORT $LN4@win32_seek

; 281  :         hFile = ((WIN32FILE_IOWIN*)stream)->hf;

  00010	8b 16		 mov	 edx, DWORD PTR [esi]
$LN4@win32_seek:

; 282  : 
; 283  :     switch (origin)

  00012	8b 45 18	 mov	 eax, DWORD PTR _origin$[ebp]
  00015	83 e8 00	 sub	 eax, 0
  00018	74 1e		 je	 SHORT $LN7@win32_seek
  0001a	83 e8 01	 sub	 eax, 1
  0001d	74 12		 je	 SHORT $LN5@win32_seek
  0001f	83 e8 01	 sub	 eax, 1
  00022	74 06		 je	 SHORT $LN6@win32_seek

; 293  :             break;
; 294  :         default: return -1;

  00024	83 c8 ff	 or	 eax, -1
  00027	5e		 pop	 esi

; 311  : }

  00028	5d		 pop	 ebp
  00029	c3		 ret	 0
$LN6@win32_seek:

; 288  :         case ZLIB_FILEFUNC_SEEK_END :
; 289  :             dwMoveMethod = FILE_END;

  0002a	b8 02 00 00 00	 mov	 eax, 2

; 290  :             break;

  0002f	eb 09		 jmp	 SHORT $LN2@win32_seek
$LN5@win32_seek:

; 284  :     {
; 285  :         case ZLIB_FILEFUNC_SEEK_CUR :
; 286  :             dwMoveMethod = FILE_CURRENT;

  00031	b8 01 00 00 00	 mov	 eax, 1

; 287  :             break;

  00036	eb 02		 jmp	 SHORT $LN2@win32_seek
$LN7@win32_seek:

; 291  :         case ZLIB_FILEFUNC_SEEK_SET :
; 292  :             dwMoveMethod = FILE_BEGIN;

  00038	33 c0		 xor	 eax, eax
$LN2@win32_seek:

; 295  :     }
; 296  : 
; 297  :     if (hFile)

  0003a	85 d2		 test	 edx, edx
  0003c	74 27		 je	 SHORT $LN11@win32_seek

; 298  :     {
; 299  :         LARGE_INTEGER* li = (LARGE_INTEGER*)&offset;
; 300  :         DWORD dwSet = SetFilePointer(hFile, li->u.LowPart, &li->u.HighPart, dwMoveMethod);

  0003e	50		 push	 eax
  0003f	8d 45 14	 lea	 eax, DWORD PTR _offset$[ebp+4]
  00042	50		 push	 eax
  00043	ff 75 10	 push	 DWORD PTR _offset$[ebp]
  00046	52		 push	 edx
  00047	ff 15 00 00 00
	00		 call	 DWORD PTR __imp__SetFilePointer@16

; 301  :         if (dwSet == INVALID_SET_FILE_POINTER)

  0004d	83 f8 ff	 cmp	 eax, -1
  00050	75 11		 jne	 SHORT $LN10@win32_seek

; 302  :         {
; 303  :             DWORD dwErr = GetLastError();

  00052	ff 15 00 00 00
	00		 call	 DWORD PTR __imp__GetLastError@0

; 304  :             ((WIN32FILE_IOWIN*)stream) -> error=(int)dwErr;

  00058	89 46 04	 mov	 DWORD PTR [esi+4], eax

; 305  :             ret = -1;

  0005b	83 c9 ff	 or	 ecx, -1

; 309  :     }
; 310  :     return ret;

  0005e	8b c1		 mov	 eax, ecx
  00060	5e		 pop	 esi

; 311  : }

  00061	5d		 pop	 ebp
  00062	c3		 ret	 0
$LN10@win32_seek:

; 306  :         }
; 307  :         else
; 308  :             ret=0;

  00063	33 c9		 xor	 ecx, ecx
$LN11@win32_seek:

; 309  :     }
; 310  :     return ret;

  00065	8b c1		 mov	 eax, ecx
  00067	5e		 pop	 esi

; 311  : }

  00068	5d		 pop	 ebp
  00069	c3		 ret	 0
_win32_seek64_file_func ENDP
_TEXT	ENDS
; Function compile flags: /Ogtp
; File e:\git\mcferront\anttrap-engine\3rdparty\zlib\zlib-1.2.5\contrib\minizip\iowin32.c
;	COMDAT _win32_close_file_func
_TEXT	SEGMENT
_opaque$ = 8						; size = 4
_stream$ = 12						; size = 4
_win32_close_file_func PROC				; COMDAT

; 314  : {

  00000	55		 push	 ebp
  00001	8b ec		 mov	 ebp, esp
  00003	57		 push	 edi

; 315  :     int ret=-1;
; 316  : 
; 317  :     if (stream!=NULL)

  00004	8b 7d 0c	 mov	 edi, DWORD PTR _stream$[ebp]
  00007	85 ff		 test	 edi, edi
  00009	74 25		 je	 SHORT $LN5@win32_clos

; 318  :     {
; 319  :         HANDLE hFile;
; 320  :         hFile = ((WIN32FILE_IOWIN*)stream) -> hf;

  0000b	56		 push	 esi
  0000c	8b 37		 mov	 esi, DWORD PTR [edi]

; 321  :         if (hFile != NULL)

  0000e	85 f6		 test	 esi, esi
  00010	74 07		 je	 SHORT $LN3@win32_clos

; 322  :         {
; 323  :             CloseHandle(hFile);

  00012	56		 push	 esi
  00013	ff 15 00 00 00
	00		 call	 DWORD PTR __imp__CloseHandle@4
$LN3@win32_clos:

; 324  :             ret=0;
; 325  :         }
; 326  :         free(stream);

  00019	57		 push	 edi
  0001a	ff 15 00 00 00
	00		 call	 DWORD PTR __imp__free
  00020	83 c4 04	 add	 esp, 4
  00023	f7 de		 neg	 esi
  00025	1b f6		 sbb	 esi, esi
  00027	f7 de		 neg	 esi
  00029	8d 46 ff	 lea	 eax, DWORD PTR [esi-1]

; 327  :     }
; 328  :     return ret;

  0002c	5e		 pop	 esi
  0002d	5f		 pop	 edi

; 329  : }

  0002e	5d		 pop	 ebp
  0002f	c3		 ret	 0
$LN5@win32_clos:

; 327  :     }
; 328  :     return ret;

  00030	83 c8 ff	 or	 eax, -1
  00033	5f		 pop	 edi

; 329  : }

  00034	5d		 pop	 ebp
  00035	c3		 ret	 0
_win32_close_file_func ENDP
_TEXT	ENDS
; Function compile flags: /Ogtp
; File e:\git\mcferront\anttrap-engine\3rdparty\zlib\zlib-1.2.5\contrib\minizip\iowin32.c
;	COMDAT _win32_error_file_func
_TEXT	SEGMENT
_opaque$ = 8						; size = 4
_stream$ = 12						; size = 4
_win32_error_file_func PROC				; COMDAT

; 332  : {

  00000	55		 push	 ebp
  00001	8b ec		 mov	 ebp, esp

; 333  :     int ret=-1;
; 334  :     if (stream!=NULL)

  00003	8b 45 0c	 mov	 eax, DWORD PTR _stream$[ebp]
  00006	85 c0		 test	 eax, eax
  00008	74 05		 je	 SHORT $LN4@win32_erro

; 335  :     {
; 336  :         ret = ((WIN32FILE_IOWIN*)stream) -> error;
; 337  :     }
; 338  :     return ret;

  0000a	8b 40 04	 mov	 eax, DWORD PTR [eax+4]

; 339  : }

  0000d	5d		 pop	 ebp
  0000e	c3		 ret	 0
$LN4@win32_erro:

; 335  :     {
; 336  :         ret = ((WIN32FILE_IOWIN*)stream) -> error;
; 337  :     }
; 338  :     return ret;

  0000f	83 c8 ff	 or	 eax, -1

; 339  : }

  00012	5d		 pop	 ebp
  00013	c3		 ret	 0
_win32_error_file_func ENDP
_TEXT	ENDS
; Function compile flags: /Ogtp
; File e:\git\mcferront\anttrap-engine\3rdparty\zlib\zlib-1.2.5\contrib\minizip\iowin32.c
;	COMDAT _fill_win32_filefunc
_TEXT	SEGMENT
_pzlib_filefunc_def$ = 8				; size = 4
_fill_win32_filefunc PROC				; COMDAT

; 342  : {

  00000	55		 push	 ebp
  00001	8b ec		 mov	 ebp, esp

; 343  :     pzlib_filefunc_def->zopen_file = win32_open_file_func;

  00003	8b 45 08	 mov	 eax, DWORD PTR _pzlib_filefunc_def$[ebp]
  00006	c7 00 00 00 00
	00		 mov	 DWORD PTR [eax], OFFSET _win32_open_file_func

; 344  :     pzlib_filefunc_def->zread_file = win32_read_file_func;

  0000c	c7 40 04 00 00
	00 00		 mov	 DWORD PTR [eax+4], OFFSET _win32_read_file_func

; 345  :     pzlib_filefunc_def->zwrite_file = win32_write_file_func;

  00013	c7 40 08 00 00
	00 00		 mov	 DWORD PTR [eax+8], OFFSET _win32_write_file_func

; 346  :     pzlib_filefunc_def->ztell_file = win32_tell_file_func;

  0001a	c7 40 0c 00 00
	00 00		 mov	 DWORD PTR [eax+12], OFFSET _win32_tell_file_func

; 347  :     pzlib_filefunc_def->zseek_file = win32_seek_file_func;

  00021	c7 40 10 00 00
	00 00		 mov	 DWORD PTR [eax+16], OFFSET _win32_seek_file_func

; 348  :     pzlib_filefunc_def->zclose_file = win32_close_file_func;

  00028	c7 40 14 00 00
	00 00		 mov	 DWORD PTR [eax+20], OFFSET _win32_close_file_func

; 349  :     pzlib_filefunc_def->zerror_file = win32_error_file_func;

  0002f	c7 40 18 00 00
	00 00		 mov	 DWORD PTR [eax+24], OFFSET _win32_error_file_func

; 350  :     pzlib_filefunc_def->opaque = NULL;

  00036	c7 40 1c 00 00
	00 00		 mov	 DWORD PTR [eax+28], 0

; 351  : }

  0003d	5d		 pop	 ebp
  0003e	c3		 ret	 0
_fill_win32_filefunc ENDP
_TEXT	ENDS
; Function compile flags: /Ogtp
; File e:\git\mcferront\anttrap-engine\3rdparty\zlib\zlib-1.2.5\contrib\minizip\iowin32.c
;	COMDAT _fill_win32_filefunc64
_TEXT	SEGMENT
_pzlib_filefunc_def$ = 8				; size = 4
_fill_win32_filefunc64 PROC				; COMDAT

; 354  : {

  00000	55		 push	 ebp
  00001	8b ec		 mov	 ebp, esp

; 355  :     pzlib_filefunc_def->zopen64_file = win32_open64_file_func;

  00003	8b 45 08	 mov	 eax, DWORD PTR _pzlib_filefunc_def$[ebp]
  00006	c7 00 00 00 00
	00		 mov	 DWORD PTR [eax], OFFSET _win32_open64_file_func

; 356  :     pzlib_filefunc_def->zread_file = win32_read_file_func;

  0000c	c7 40 04 00 00
	00 00		 mov	 DWORD PTR [eax+4], OFFSET _win32_read_file_func

; 357  :     pzlib_filefunc_def->zwrite_file = win32_write_file_func;

  00013	c7 40 08 00 00
	00 00		 mov	 DWORD PTR [eax+8], OFFSET _win32_write_file_func

; 358  :     pzlib_filefunc_def->ztell64_file = win32_tell64_file_func;

  0001a	c7 40 0c 00 00
	00 00		 mov	 DWORD PTR [eax+12], OFFSET _win32_tell64_file_func

; 359  :     pzlib_filefunc_def->zseek64_file = win32_seek64_file_func;

  00021	c7 40 10 00 00
	00 00		 mov	 DWORD PTR [eax+16], OFFSET _win32_seek64_file_func

; 360  :     pzlib_filefunc_def->zclose_file = win32_close_file_func;

  00028	c7 40 14 00 00
	00 00		 mov	 DWORD PTR [eax+20], OFFSET _win32_close_file_func

; 361  :     pzlib_filefunc_def->zerror_file = win32_error_file_func;

  0002f	c7 40 18 00 00
	00 00		 mov	 DWORD PTR [eax+24], OFFSET _win32_error_file_func

; 362  :     pzlib_filefunc_def->opaque = NULL;

  00036	c7 40 1c 00 00
	00 00		 mov	 DWORD PTR [eax+28], 0

; 363  : }

  0003d	5d		 pop	 ebp
  0003e	c3		 ret	 0
_fill_win32_filefunc64 ENDP
_TEXT	ENDS
; Function compile flags: /Ogtp
; File e:\git\mcferront\anttrap-engine\3rdparty\zlib\zlib-1.2.5\contrib\minizip\iowin32.c
;	COMDAT _fill_win32_filefunc64A
_TEXT	SEGMENT
_pzlib_filefunc_def$ = 8				; size = 4
_fill_win32_filefunc64A PROC				; COMDAT

; 367  : {

  00000	55		 push	 ebp
  00001	8b ec		 mov	 ebp, esp

; 368  :     pzlib_filefunc_def->zopen64_file = win32_open64_file_funcA;

  00003	8b 45 08	 mov	 eax, DWORD PTR _pzlib_filefunc_def$[ebp]
  00006	c7 00 00 00 00
	00		 mov	 DWORD PTR [eax], OFFSET _win32_open64_file_funcA

; 369  :     pzlib_filefunc_def->zread_file = win32_read_file_func;

  0000c	c7 40 04 00 00
	00 00		 mov	 DWORD PTR [eax+4], OFFSET _win32_read_file_func

; 370  :     pzlib_filefunc_def->zwrite_file = win32_write_file_func;

  00013	c7 40 08 00 00
	00 00		 mov	 DWORD PTR [eax+8], OFFSET _win32_write_file_func

; 371  :     pzlib_filefunc_def->ztell64_file = win32_tell64_file_func;

  0001a	c7 40 0c 00 00
	00 00		 mov	 DWORD PTR [eax+12], OFFSET _win32_tell64_file_func

; 372  :     pzlib_filefunc_def->zseek64_file = win32_seek64_file_func;

  00021	c7 40 10 00 00
	00 00		 mov	 DWORD PTR [eax+16], OFFSET _win32_seek64_file_func

; 373  :     pzlib_filefunc_def->zclose_file = win32_close_file_func;

  00028	c7 40 14 00 00
	00 00		 mov	 DWORD PTR [eax+20], OFFSET _win32_close_file_func

; 374  :     pzlib_filefunc_def->zerror_file = win32_error_file_func;

  0002f	c7 40 18 00 00
	00 00		 mov	 DWORD PTR [eax+24], OFFSET _win32_error_file_func

; 375  :     pzlib_filefunc_def->opaque = NULL;

  00036	c7 40 1c 00 00
	00 00		 mov	 DWORD PTR [eax+28], 0

; 376  : }

  0003d	5d		 pop	 ebp
  0003e	c3		 ret	 0
_fill_win32_filefunc64A ENDP
_TEXT	ENDS
; Function compile flags: /Ogtp
; File e:\git\mcferront\anttrap-engine\3rdparty\zlib\zlib-1.2.5\contrib\minizip\iowin32.c
;	COMDAT _fill_win32_filefunc64W
_TEXT	SEGMENT
_pzlib_filefunc_def$ = 8				; size = 4
_fill_win32_filefunc64W PROC				; COMDAT

; 380  : {

  00000	55		 push	 ebp
  00001	8b ec		 mov	 ebp, esp

; 381  :     pzlib_filefunc_def->zopen64_file = win32_open64_file_funcW;

  00003	8b 45 08	 mov	 eax, DWORD PTR _pzlib_filefunc_def$[ebp]
  00006	c7 00 00 00 00
	00		 mov	 DWORD PTR [eax], OFFSET _win32_open64_file_funcW

; 382  :     pzlib_filefunc_def->zread_file = win32_read_file_func;

  0000c	c7 40 04 00 00
	00 00		 mov	 DWORD PTR [eax+4], OFFSET _win32_read_file_func

; 383  :     pzlib_filefunc_def->zwrite_file = win32_write_file_func;

  00013	c7 40 08 00 00
	00 00		 mov	 DWORD PTR [eax+8], OFFSET _win32_write_file_func

; 384  :     pzlib_filefunc_def->ztell64_file = win32_tell64_file_func;

  0001a	c7 40 0c 00 00
	00 00		 mov	 DWORD PTR [eax+12], OFFSET _win32_tell64_file_func

; 385  :     pzlib_filefunc_def->zseek64_file = win32_seek64_file_func;

  00021	c7 40 10 00 00
	00 00		 mov	 DWORD PTR [eax+16], OFFSET _win32_seek64_file_func

; 386  :     pzlib_filefunc_def->zclose_file = win32_close_file_func;

  00028	c7 40 14 00 00
	00 00		 mov	 DWORD PTR [eax+20], OFFSET _win32_close_file_func

; 387  :     pzlib_filefunc_def->zerror_file = win32_error_file_func;

  0002f	c7 40 18 00 00
	00 00		 mov	 DWORD PTR [eax+24], OFFSET _win32_error_file_func

; 388  :     pzlib_filefunc_def->opaque = NULL;

  00036	c7 40 1c 00 00
	00 00		 mov	 DWORD PTR [eax+28], 0

; 389  : }

  0003d	5d		 pop	 ebp
  0003e	c3		 ret	 0
_fill_win32_filefunc64W ENDP
_TEXT	ENDS
END
